   1              		.syntax unified
   2              		.cpu cortex-m3
   3              		.fpu softvfp
   4              		.eabi_attribute 20, 1
   5              		.eabi_attribute 21, 1
   6              		.eabi_attribute 23, 3
   7              		.eabi_attribute 24, 1
   8              		.eabi_attribute 25, 1
   9              		.eabi_attribute 26, 1
  10              		.eabi_attribute 30, 6
  11              		.eabi_attribute 34, 1
  12              		.eabi_attribute 18, 4
  13              		.thumb
  14              		.file	"stm32_eth.c"
  15              		.text
  16              	.Ltext0:
  17              		.cfi_sections	.debug_frame
  18              		.comm	DMATxDescToSet,4,4
  19              		.comm	DMARxDescToGet,4,4
  20              		.comm	DMAPTPTxDescToSet,4,4
  21              		.comm	DMAPTPRxDescToGet,4,4
  22              		.section	.text.ETH_DeInit,"ax",%progbits
  23              		.align	2
  24              		.global	ETH_DeInit
  25              		.thumb
  26              		.thumb_func
  28              	ETH_DeInit:
  29              	.LFB29:
  30              		.file 1 "../STM32_ETH_Driver/src/stm32_eth.c"
   1:../STM32_ETH_Driver/src/stm32_eth.c **** /**
   2:../STM32_ETH_Driver/src/stm32_eth.c ****   ******************************************************************************
   3:../STM32_ETH_Driver/src/stm32_eth.c ****   * @file    stm32_eth.c
   4:../STM32_ETH_Driver/src/stm32_eth.c ****   * @author  MCD Application Team
   5:../STM32_ETH_Driver/src/stm32_eth.c ****   * @version V1.1.0
   6:../STM32_ETH_Driver/src/stm32_eth.c ****   * @date    11/20/2009
   7:../STM32_ETH_Driver/src/stm32_eth.c ****   * @brief   This file provides all the ETH firmware functions.
   8:../STM32_ETH_Driver/src/stm32_eth.c ****   ******************************************************************************
   9:../STM32_ETH_Driver/src/stm32_eth.c ****   * @copy
  10:../STM32_ETH_Driver/src/stm32_eth.c ****   *
  11:../STM32_ETH_Driver/src/stm32_eth.c ****   * THE PRESENT FIRMWARE WHICH IS FOR GUIDANCE ONLY AIMS AT PROVIDING CUSTOMERS
  12:../STM32_ETH_Driver/src/stm32_eth.c ****   * WITH CODING INFORMATION REGARDING THEIR PRODUCTS IN ORDER FOR THEM TO SAVE
  13:../STM32_ETH_Driver/src/stm32_eth.c ****   * TIME. AS A RESULT, STMICROELECTRONICS SHALL NOT BE HELD LIABLE FOR ANY
  14:../STM32_ETH_Driver/src/stm32_eth.c ****   * DIRECT, INDIRECT OR CONSEQUENTIAL DAMAGES WITH RESPECT TO ANY CLAIMS ARISING
  15:../STM32_ETH_Driver/src/stm32_eth.c ****   * FROM THE CONTENT OF SUCH FIRMWARE AND/OR THE USE MADE BY CUSTOMERS OF THE
  16:../STM32_ETH_Driver/src/stm32_eth.c ****   * CODING INFORMATION CONTAINED HEREIN IN CONNECTION WITH THEIR PRODUCTS.
  17:../STM32_ETH_Driver/src/stm32_eth.c ****   *
  18:../STM32_ETH_Driver/src/stm32_eth.c ****   * <h2><center>&copy; COPYRIGHT 2009 STMicroelectronics</center></h2>
  19:../STM32_ETH_Driver/src/stm32_eth.c ****   */ 
  20:../STM32_ETH_Driver/src/stm32_eth.c **** 
  21:../STM32_ETH_Driver/src/stm32_eth.c **** /* Includes ------------------------------------------------------------------*/
  22:../STM32_ETH_Driver/src/stm32_eth.c **** #include "stm32_eth.h"
  23:../STM32_ETH_Driver/src/stm32_eth.c **** #include "stm32f10x_rcc.h"
  24:../STM32_ETH_Driver/src/stm32_eth.c **** 
  25:../STM32_ETH_Driver/src/stm32_eth.c **** /** @addtogroup STM32_ETH_Driver
  26:../STM32_ETH_Driver/src/stm32_eth.c ****   * @brief ETH driver modules
  27:../STM32_ETH_Driver/src/stm32_eth.c ****   * @{
  28:../STM32_ETH_Driver/src/stm32_eth.c ****   */
  29:../STM32_ETH_Driver/src/stm32_eth.c **** 
  30:../STM32_ETH_Driver/src/stm32_eth.c **** /** @defgroup ETH_Private_TypesDefinitions
  31:../STM32_ETH_Driver/src/stm32_eth.c ****   * @{
  32:../STM32_ETH_Driver/src/stm32_eth.c ****   */ 
  33:../STM32_ETH_Driver/src/stm32_eth.c **** /**
  34:../STM32_ETH_Driver/src/stm32_eth.c ****   * @}
  35:../STM32_ETH_Driver/src/stm32_eth.c ****   */ 
  36:../STM32_ETH_Driver/src/stm32_eth.c **** 
  37:../STM32_ETH_Driver/src/stm32_eth.c **** /* Structure used to hold the last received packet descriptors info */
  38:../STM32_ETH_Driver/src/stm32_eth.c **** 
  39:../STM32_ETH_Driver/src/stm32_eth.c **** /** @defgroup ETH_Private_Defines
  40:../STM32_ETH_Driver/src/stm32_eth.c ****   * @{
  41:../STM32_ETH_Driver/src/stm32_eth.c ****   */ 
  42:../STM32_ETH_Driver/src/stm32_eth.c **** /* Global pointers on Tx and Rx descriptor used to track transmit and receive descriptors */
  43:../STM32_ETH_Driver/src/stm32_eth.c **** ETH_DMADESCTypeDef  *DMATxDescToSet;
  44:../STM32_ETH_Driver/src/stm32_eth.c **** ETH_DMADESCTypeDef  *DMARxDescToGet;
  45:../STM32_ETH_Driver/src/stm32_eth.c **** ETH_DMADESCTypeDef  *DMAPTPTxDescToSet;
  46:../STM32_ETH_Driver/src/stm32_eth.c **** ETH_DMADESCTypeDef  *DMAPTPRxDescToGet;
  47:../STM32_ETH_Driver/src/stm32_eth.c **** 
  48:../STM32_ETH_Driver/src/stm32_eth.c **** /* ETHERNET MAC address offsets */
  49:../STM32_ETH_Driver/src/stm32_eth.c **** #define ETH_MAC_ADDR_HBASE   (ETH_MAC_BASE + 0x40)  /* ETHERNET MAC address high offset */
  50:../STM32_ETH_Driver/src/stm32_eth.c **** #define ETH_MAC_ADDR_LBASE    (ETH_MAC_BASE + 0x44)  /* ETHERNET MAC address low offset */
  51:../STM32_ETH_Driver/src/stm32_eth.c **** 
  52:../STM32_ETH_Driver/src/stm32_eth.c **** /* ETHERNET MACMIIAR register Mask */
  53:../STM32_ETH_Driver/src/stm32_eth.c **** #define MACMIIAR_CR_MASK    ((uint32_t)0xFFFFFFE3) 
  54:../STM32_ETH_Driver/src/stm32_eth.c **** 
  55:../STM32_ETH_Driver/src/stm32_eth.c **** /* ETHERNET MACCR register Mask */
  56:../STM32_ETH_Driver/src/stm32_eth.c **** #define MACCR_CLEAR_MASK    ((uint32_t)0xFF20810F)  
  57:../STM32_ETH_Driver/src/stm32_eth.c **** 
  58:../STM32_ETH_Driver/src/stm32_eth.c **** /* ETHERNET MACFCR register Mask */
  59:../STM32_ETH_Driver/src/stm32_eth.c **** #define MACFCR_CLEAR_MASK   ((uint32_t)0x0000FF41)
  60:../STM32_ETH_Driver/src/stm32_eth.c **** 
  61:../STM32_ETH_Driver/src/stm32_eth.c **** /* ETHERNET DMAOMR register Mask */
  62:../STM32_ETH_Driver/src/stm32_eth.c **** #define DMAOMR_CLEAR_MASK   ((uint32_t)0xF8DE3F23)
  63:../STM32_ETH_Driver/src/stm32_eth.c **** 
  64:../STM32_ETH_Driver/src/stm32_eth.c **** /* ETHERNET Remote Wake-up frame register length */
  65:../STM32_ETH_Driver/src/stm32_eth.c **** #define ETH_WAKEUP_REGISTER_LENGTH      8
  66:../STM32_ETH_Driver/src/stm32_eth.c **** 
  67:../STM32_ETH_Driver/src/stm32_eth.c **** /* ETHERNET Missed frames counter Shift */
  68:../STM32_ETH_Driver/src/stm32_eth.c **** #define  ETH_DMA_RX_OVERFLOW_MISSEDFRAMES_COUNTERSHIFT     17
  69:../STM32_ETH_Driver/src/stm32_eth.c **** 
  70:../STM32_ETH_Driver/src/stm32_eth.c **** /* ETHERNET DMA Tx descriptors Collision Count Shift */
  71:../STM32_ETH_Driver/src/stm32_eth.c **** #define  ETH_DMATXDESC_COLLISION_COUNTSHIFT        3
  72:../STM32_ETH_Driver/src/stm32_eth.c **** 
  73:../STM32_ETH_Driver/src/stm32_eth.c **** /* ETHERNET DMA Tx descriptors Buffer2 Size Shift */
  74:../STM32_ETH_Driver/src/stm32_eth.c **** #define  ETH_DMATXDESC_BUFFER2_SIZESHIFT           16
  75:../STM32_ETH_Driver/src/stm32_eth.c **** 
  76:../STM32_ETH_Driver/src/stm32_eth.c **** /* ETHERNET DMA Rx descriptors Frame Length Shift */
  77:../STM32_ETH_Driver/src/stm32_eth.c **** #define  ETH_DMARXDESC_FRAME_LENGTHSHIFT           16
  78:../STM32_ETH_Driver/src/stm32_eth.c **** 
  79:../STM32_ETH_Driver/src/stm32_eth.c **** /* ETHERNET DMA Rx descriptors Buffer2 Size Shift */
  80:../STM32_ETH_Driver/src/stm32_eth.c **** #define  ETH_DMARXDESC_BUFFER2_SIZESHIFT           16
  81:../STM32_ETH_Driver/src/stm32_eth.c **** 
  82:../STM32_ETH_Driver/src/stm32_eth.c **** /**
  83:../STM32_ETH_Driver/src/stm32_eth.c ****   * @}
  84:../STM32_ETH_Driver/src/stm32_eth.c ****   */
  85:../STM32_ETH_Driver/src/stm32_eth.c **** 
  86:../STM32_ETH_Driver/src/stm32_eth.c **** /** @defgroup ETH_Private_Macros
  87:../STM32_ETH_Driver/src/stm32_eth.c ****   * @{
  88:../STM32_ETH_Driver/src/stm32_eth.c ****   */ 
  89:../STM32_ETH_Driver/src/stm32_eth.c **** /**
  90:../STM32_ETH_Driver/src/stm32_eth.c ****   * @}
  91:../STM32_ETH_Driver/src/stm32_eth.c ****   */
  92:../STM32_ETH_Driver/src/stm32_eth.c **** 
  93:../STM32_ETH_Driver/src/stm32_eth.c **** /** @defgroup ETH_Private_Variables
  94:../STM32_ETH_Driver/src/stm32_eth.c ****   * @{
  95:../STM32_ETH_Driver/src/stm32_eth.c ****   */ 
  96:../STM32_ETH_Driver/src/stm32_eth.c **** /**
  97:../STM32_ETH_Driver/src/stm32_eth.c ****   * @}
  98:../STM32_ETH_Driver/src/stm32_eth.c ****   */
  99:../STM32_ETH_Driver/src/stm32_eth.c **** 
 100:../STM32_ETH_Driver/src/stm32_eth.c **** /** @defgroup ETH_Private_FunctionPrototypes
 101:../STM32_ETH_Driver/src/stm32_eth.c ****   * @{
 102:../STM32_ETH_Driver/src/stm32_eth.c ****   */ 
 103:../STM32_ETH_Driver/src/stm32_eth.c ****   
 104:../STM32_ETH_Driver/src/stm32_eth.c **** #ifndef USE_Delay
 105:../STM32_ETH_Driver/src/stm32_eth.c **** static void ETH_Delay(__IO uint32_t nCount);
 106:../STM32_ETH_Driver/src/stm32_eth.c **** #endif /* USE_Delay*/
 107:../STM32_ETH_Driver/src/stm32_eth.c ****   
 108:../STM32_ETH_Driver/src/stm32_eth.c **** /**
 109:../STM32_ETH_Driver/src/stm32_eth.c ****   * @}
 110:../STM32_ETH_Driver/src/stm32_eth.c ****   */
 111:../STM32_ETH_Driver/src/stm32_eth.c **** 
 112:../STM32_ETH_Driver/src/stm32_eth.c **** /** @defgroup ETH_Private_Functions
 113:../STM32_ETH_Driver/src/stm32_eth.c ****   * @{
 114:../STM32_ETH_Driver/src/stm32_eth.c ****   */
 115:../STM32_ETH_Driver/src/stm32_eth.c **** 
 116:../STM32_ETH_Driver/src/stm32_eth.c **** /**
 117:../STM32_ETH_Driver/src/stm32_eth.c ****   * @brief  Deinitializes the ETHERNET peripheral registers to their default reset values.
 118:../STM32_ETH_Driver/src/stm32_eth.c ****   * @param  None 
 119:../STM32_ETH_Driver/src/stm32_eth.c ****   * @retval None
 120:../STM32_ETH_Driver/src/stm32_eth.c ****   */
 121:../STM32_ETH_Driver/src/stm32_eth.c **** void ETH_DeInit(void)
 122:../STM32_ETH_Driver/src/stm32_eth.c **** {
  31              		.loc 1 122 0
  32              		.cfi_startproc
  33              		@ args = 0, pretend = 0, frame = 0
  34              		@ frame_needed = 1, uses_anonymous_args = 0
  35 0000 80B5     		push	{r7, lr}
  36              		.cfi_def_cfa_offset 8
  37              		.cfi_offset 7, -8
  38              		.cfi_offset 14, -4
  39 0002 00AF     		add	r7, sp, #0
  40              		.cfi_def_cfa_register 7
 123:../STM32_ETH_Driver/src/stm32_eth.c ****   RCC_AHBPeriphResetCmd(RCC_AHBPeriph_ETH_MAC, ENABLE);
  41              		.loc 1 123 0
  42 0004 4FF48040 		mov	r0, #16384
  43 0008 0121     		movs	r1, #1
  44 000a FFF7FEFF 		bl	RCC_AHBPeriphResetCmd
 124:../STM32_ETH_Driver/src/stm32_eth.c ****   RCC_AHBPeriphResetCmd(RCC_AHBPeriph_ETH_MAC, DISABLE);
  45              		.loc 1 124 0
  46 000e 4FF48040 		mov	r0, #16384
  47 0012 0021     		movs	r1, #0
  48 0014 FFF7FEFF 		bl	RCC_AHBPeriphResetCmd
 125:../STM32_ETH_Driver/src/stm32_eth.c **** }
  49              		.loc 1 125 0
  50 0018 80BD     		pop	{r7, pc}
  51              		.cfi_endproc
  52              	.LFE29:
  54 001a 00BF     		.section	.text.ETH_Init,"ax",%progbits
  55              		.align	2
  56              		.global	ETH_Init
  57              		.thumb
  58              		.thumb_func
  60              	ETH_Init:
  61              	.LFB30:
 126:../STM32_ETH_Driver/src/stm32_eth.c **** 
 127:../STM32_ETH_Driver/src/stm32_eth.c **** /**
 128:../STM32_ETH_Driver/src/stm32_eth.c ****   * @brief  Initializes the ETHERNET peripheral according to the specified
 129:../STM32_ETH_Driver/src/stm32_eth.c ****   *   parameters in the ETH_InitStruct .
 130:../STM32_ETH_Driver/src/stm32_eth.c ****   * @param ETH_InitStruct: pointer to a ETH_InitTypeDef structure that contains
 131:../STM32_ETH_Driver/src/stm32_eth.c ****   *   the configuration information for the specified ETHERNET peripheral.
 132:../STM32_ETH_Driver/src/stm32_eth.c ****   * @param PHYAddress: external PHY address                    
 133:../STM32_ETH_Driver/src/stm32_eth.c ****   * @retval ETH_ERROR: Ethernet initialization failed
 134:../STM32_ETH_Driver/src/stm32_eth.c ****   *         ETH_SUCCESS: Ethernet successfully initialized                 
 135:../STM32_ETH_Driver/src/stm32_eth.c ****   */
 136:../STM32_ETH_Driver/src/stm32_eth.c **** uint32_t ETH_Init(ETH_InitTypeDef* ETH_InitStruct, uint16_t PHYAddress)
 137:../STM32_ETH_Driver/src/stm32_eth.c **** {
  62              		.loc 1 137 0
  63              		.cfi_startproc
  64              		@ args = 0, pretend = 0, frame = 40
  65              		@ frame_needed = 1, uses_anonymous_args = 0
  66 0000 80B5     		push	{r7, lr}
  67              		.cfi_def_cfa_offset 8
  68              		.cfi_offset 7, -8
  69              		.cfi_offset 14, -4
  70 0002 8AB0     		sub	sp, sp, #40
  71              		.cfi_def_cfa_offset 48
  72 0004 00AF     		add	r7, sp, #0
  73              		.cfi_def_cfa_register 7
  74 0006 7860     		str	r0, [r7, #4]
  75 0008 0B46     		mov	r3, r1
  76 000a 7B80     		strh	r3, [r7, #2]	@ movhi
 138:../STM32_ETH_Driver/src/stm32_eth.c ****   uint32_t tmpreg = 0;
  77              		.loc 1 138 0
  78 000c 0023     		movs	r3, #0
  79 000e 7B62     		str	r3, [r7, #36]
 139:../STM32_ETH_Driver/src/stm32_eth.c ****   RCC_ClocksTypeDef  rcc_clocks;
 140:../STM32_ETH_Driver/src/stm32_eth.c ****   uint32_t hclk = 60000000;
  80              		.loc 1 140 0
  81 0010 874B     		ldr	r3, .L9
  82 0012 3B62     		str	r3, [r7, #32]
 141:../STM32_ETH_Driver/src/stm32_eth.c ****   /* Check the parameters */
 142:../STM32_ETH_Driver/src/stm32_eth.c ****   /* MAC --------------------------*/ 
 143:../STM32_ETH_Driver/src/stm32_eth.c ****   assert_param(IS_ETH_AUTONEGOTIATION(ETH_InitStruct->ETH_AutoNegotiation));
 144:../STM32_ETH_Driver/src/stm32_eth.c ****   assert_param(IS_ETH_WATCHDOG(ETH_InitStruct->ETH_Watchdog));
 145:../STM32_ETH_Driver/src/stm32_eth.c ****   assert_param(IS_ETH_JABBER(ETH_InitStruct->ETH_Jabber));
 146:../STM32_ETH_Driver/src/stm32_eth.c ****   assert_param(IS_ETH_INTER_FRAME_GAP(ETH_InitStruct->ETH_InterFrameGap));
 147:../STM32_ETH_Driver/src/stm32_eth.c ****   assert_param(IS_ETH_CARRIER_SENSE(ETH_InitStruct->ETH_CarrierSense));
 148:../STM32_ETH_Driver/src/stm32_eth.c ****   assert_param(IS_ETH_SPEED(ETH_InitStruct->ETH_Speed));
 149:../STM32_ETH_Driver/src/stm32_eth.c ****   assert_param(IS_ETH_RECEIVE_OWN(ETH_InitStruct->ETH_ReceiveOwn));
 150:../STM32_ETH_Driver/src/stm32_eth.c ****   assert_param(IS_ETH_LOOPBACK_MODE(ETH_InitStruct->ETH_LoopbackMode));
 151:../STM32_ETH_Driver/src/stm32_eth.c ****   assert_param(IS_ETH_DUPLEX_MODE(ETH_InitStruct->ETH_Mode));
 152:../STM32_ETH_Driver/src/stm32_eth.c ****   assert_param(IS_ETH_CHECKSUM_OFFLOAD(ETH_InitStruct->ETH_ChecksumOffload));
 153:../STM32_ETH_Driver/src/stm32_eth.c ****   assert_param(IS_ETH_RETRY_TRANSMISSION(ETH_InitStruct->ETH_RetryTransmission));
 154:../STM32_ETH_Driver/src/stm32_eth.c ****   assert_param(IS_ETH_AUTOMATIC_PADCRC_STRIP(ETH_InitStruct->ETH_AutomaticPadCRCStrip));
 155:../STM32_ETH_Driver/src/stm32_eth.c ****   assert_param(IS_ETH_BACKOFF_LIMIT(ETH_InitStruct->ETH_BackOffLimit));
 156:../STM32_ETH_Driver/src/stm32_eth.c ****   assert_param(IS_ETH_DEFERRAL_CHECK(ETH_InitStruct->ETH_DeferralCheck));
 157:../STM32_ETH_Driver/src/stm32_eth.c ****   assert_param(IS_ETH_RECEIVE_ALL(ETH_InitStruct->ETH_ReceiveAll));
 158:../STM32_ETH_Driver/src/stm32_eth.c ****   assert_param(IS_ETH_SOURCE_ADDR_FILTER(ETH_InitStruct->ETH_SourceAddrFilter));
 159:../STM32_ETH_Driver/src/stm32_eth.c ****   assert_param(IS_ETH_CONTROL_FRAMES(ETH_InitStruct->ETH_PassControlFrames));
 160:../STM32_ETH_Driver/src/stm32_eth.c ****   assert_param(IS_ETH_BROADCAST_FRAMES_RECEPTION(ETH_InitStruct->ETH_BroadcastFramesReception));
 161:../STM32_ETH_Driver/src/stm32_eth.c ****   assert_param(IS_ETH_DESTINATION_ADDR_FILTER(ETH_InitStruct->ETH_DestinationAddrFilter));
 162:../STM32_ETH_Driver/src/stm32_eth.c ****   assert_param(IS_ETH_PROMISCUOUS_MODE(ETH_InitStruct->ETH_PromiscuousMode));
 163:../STM32_ETH_Driver/src/stm32_eth.c ****   assert_param(IS_ETH_MULTICAST_FRAMES_FILTER(ETH_InitStruct->ETH_MulticastFramesFilter));  
 164:../STM32_ETH_Driver/src/stm32_eth.c ****   assert_param(IS_ETH_UNICAST_FRAMES_FILTER(ETH_InitStruct->ETH_UnicastFramesFilter));
 165:../STM32_ETH_Driver/src/stm32_eth.c ****   assert_param(IS_ETH_PAUSE_TIME(ETH_InitStruct->ETH_PauseTime));
 166:../STM32_ETH_Driver/src/stm32_eth.c ****   assert_param(IS_ETH_ZEROQUANTA_PAUSE(ETH_InitStruct->ETH_ZeroQuantaPause));
 167:../STM32_ETH_Driver/src/stm32_eth.c ****   assert_param(IS_ETH_PAUSE_LOW_THRESHOLD(ETH_InitStruct->ETH_PauseLowThreshold));
 168:../STM32_ETH_Driver/src/stm32_eth.c ****   assert_param(IS_ETH_UNICAST_PAUSE_FRAME_DETECT(ETH_InitStruct->ETH_UnicastPauseFrameDetect));
 169:../STM32_ETH_Driver/src/stm32_eth.c ****   assert_param(IS_ETH_RECEIVE_FLOWCONTROL(ETH_InitStruct->ETH_ReceiveFlowControl));
 170:../STM32_ETH_Driver/src/stm32_eth.c ****   assert_param(IS_ETH_TRANSMIT_FLOWCONTROL(ETH_InitStruct->ETH_TransmitFlowControl));
 171:../STM32_ETH_Driver/src/stm32_eth.c ****   assert_param(IS_ETH_VLAN_TAG_COMPARISON(ETH_InitStruct->ETH_VLANTagComparison));
 172:../STM32_ETH_Driver/src/stm32_eth.c ****   assert_param(IS_ETH_VLAN_TAG_IDENTIFIER(ETH_InitStruct->ETH_VLANTagIdentifier));
 173:../STM32_ETH_Driver/src/stm32_eth.c ****   /* DMA --------------------------*/
 174:../STM32_ETH_Driver/src/stm32_eth.c ****   assert_param(IS_ETH_DROP_TCPIP_CHECKSUM_FRAME(ETH_InitStruct->ETH_DropTCPIPChecksumErrorFrame));
 175:../STM32_ETH_Driver/src/stm32_eth.c ****   assert_param(IS_ETH_RECEIVE_STORE_FORWARD(ETH_InitStruct->ETH_ReceiveStoreForward));
 176:../STM32_ETH_Driver/src/stm32_eth.c ****   assert_param(IS_ETH_FLUSH_RECEIVE_FRAME(ETH_InitStruct->ETH_FlushReceivedFrame));
 177:../STM32_ETH_Driver/src/stm32_eth.c ****   assert_param(IS_ETH_TRANSMIT_STORE_FORWARD(ETH_InitStruct->ETH_TransmitStoreForward));
 178:../STM32_ETH_Driver/src/stm32_eth.c ****   assert_param(IS_ETH_TRANSMIT_THRESHOLD_CONTROL(ETH_InitStruct->ETH_TransmitThresholdControl));
 179:../STM32_ETH_Driver/src/stm32_eth.c ****   assert_param(IS_ETH_FORWARD_ERROR_FRAMES(ETH_InitStruct->ETH_ForwardErrorFrames));
 180:../STM32_ETH_Driver/src/stm32_eth.c ****   assert_param(IS_ETH_FORWARD_UNDERSIZED_GOOD_FRAMES(ETH_InitStruct->ETH_ForwardUndersizedGoodFrame
 181:../STM32_ETH_Driver/src/stm32_eth.c ****   assert_param(IS_ETH_RECEIVE_THRESHOLD_CONTROL(ETH_InitStruct->ETH_ReceiveThresholdControl));
 182:../STM32_ETH_Driver/src/stm32_eth.c ****   assert_param(IS_ETH_SECOND_FRAME_OPERATE(ETH_InitStruct->ETH_SecondFrameOperate));
 183:../STM32_ETH_Driver/src/stm32_eth.c ****   assert_param(IS_ETH_ADDRESS_ALIGNED_BEATS(ETH_InitStruct->ETH_AddressAlignedBeats));
 184:../STM32_ETH_Driver/src/stm32_eth.c ****   assert_param(IS_ETH_FIXED_BURST(ETH_InitStruct->ETH_FixedBurst));
 185:../STM32_ETH_Driver/src/stm32_eth.c ****   assert_param(IS_ETH_RXDMA_BURST_LENGTH(ETH_InitStruct->ETH_RxDMABurstLength));
 186:../STM32_ETH_Driver/src/stm32_eth.c ****   assert_param(IS_ETH_TXDMA_BURST_LENGTH(ETH_InitStruct->ETH_TxDMABurstLength)); 
 187:../STM32_ETH_Driver/src/stm32_eth.c ****   assert_param(IS_ETH_DMA_DESC_SKIP_LENGTH(ETH_InitStruct->ETH_DescriptorSkipLength));  
 188:../STM32_ETH_Driver/src/stm32_eth.c ****   assert_param(IS_ETH_DMA_ARBITRATION_ROUNDROBIN_RXTX(ETH_InitStruct->ETH_DMAArbitration));       
 189:../STM32_ETH_Driver/src/stm32_eth.c ****   /*-------------------------------- MAC Config ------------------------------*/   
 190:../STM32_ETH_Driver/src/stm32_eth.c ****   /*---------------------- ETHERNET MACMIIAR Configuration -------------------*/
 191:../STM32_ETH_Driver/src/stm32_eth.c ****   /* Get the ETHERNET MACMIIAR value */
 192:../STM32_ETH_Driver/src/stm32_eth.c **** 
 193:../STM32_ETH_Driver/src/stm32_eth.c **** 
 194:../STM32_ETH_Driver/src/stm32_eth.c **** 
 195:../STM32_ETH_Driver/src/stm32_eth.c ****   tmpreg = ETH->MACMIIAR;
  83              		.loc 1 195 0
  84 0014 874B     		ldr	r3, .L9+4
  85 0016 1B69     		ldr	r3, [r3, #16]
  86 0018 7B62     		str	r3, [r7, #36]
 196:../STM32_ETH_Driver/src/stm32_eth.c ****   /* Clear CSR Clock Range CR[2:0] bits */
 197:../STM32_ETH_Driver/src/stm32_eth.c ****   tmpreg &= MACMIIAR_CR_MASK;
  87              		.loc 1 197 0
  88 001a 7B6A     		ldr	r3, [r7, #36]
  89 001c 23F01C03 		bic	r3, r3, #28
  90 0020 7B62     		str	r3, [r7, #36]
 198:../STM32_ETH_Driver/src/stm32_eth.c ****   /* Get hclk frequency value */
 199:../STM32_ETH_Driver/src/stm32_eth.c ****   RCC_GetClocksFreq(&rcc_clocks);
  91              		.loc 1 199 0
  92 0022 07F10C03 		add	r3, r7, #12
  93 0026 1846     		mov	r0, r3
  94 0028 FFF7FEFF 		bl	RCC_GetClocksFreq
 200:../STM32_ETH_Driver/src/stm32_eth.c ****   hclk = rcc_clocks.HCLK_Frequency;
  95              		.loc 1 200 0
  96 002c 3B69     		ldr	r3, [r7, #16]
  97 002e 3B62     		str	r3, [r7, #32]
 201:../STM32_ETH_Driver/src/stm32_eth.c ****   /* Set CR bits depending on hclk value */
 202:../STM32_ETH_Driver/src/stm32_eth.c ****   if((hclk >= 20000000)&&(hclk < 35000000))
  98              		.loc 1 202 0
  99 0030 3B6A     		ldr	r3, [r7, #32]
 100 0032 814A     		ldr	r2, .L9+8
 101 0034 9342     		cmp	r3, r2
 102 0036 08D9     		bls	.L3
 103              		.loc 1 202 0 is_stmt 0 discriminator 1
 104 0038 3B6A     		ldr	r3, [r7, #32]
 105 003a 804A     		ldr	r2, .L9+12
 106 003c 9342     		cmp	r3, r2
 107 003e 04D8     		bhi	.L3
 203:../STM32_ETH_Driver/src/stm32_eth.c ****   {
 204:../STM32_ETH_Driver/src/stm32_eth.c ****     /* CSR Clock Range between 20-35 MHz */
 205:../STM32_ETH_Driver/src/stm32_eth.c ****     tmpreg |= (uint32_t)ETH_MACMIIAR_CR_Div16;
 108              		.loc 1 205 0 is_stmt 1
 109 0040 7B6A     		ldr	r3, [r7, #36]
 110 0042 43F00803 		orr	r3, r3, #8
 111 0046 7B62     		str	r3, [r7, #36]
 112 0048 0BE0     		b	.L4
 113              	.L3:
 206:../STM32_ETH_Driver/src/stm32_eth.c ****   }
 207:../STM32_ETH_Driver/src/stm32_eth.c ****   else if((hclk >= 35000000)&&(hclk < 60000000))
 114              		.loc 1 207 0
 115 004a 3B6A     		ldr	r3, [r7, #32]
 116 004c 7B4A     		ldr	r2, .L9+12
 117 004e 9342     		cmp	r3, r2
 118 0050 07D9     		bls	.L4
 119              		.loc 1 207 0 is_stmt 0 discriminator 1
 120 0052 3B6A     		ldr	r3, [r7, #32]
 121 0054 7A4A     		ldr	r2, .L9+16
 122 0056 9342     		cmp	r3, r2
 123 0058 03D8     		bhi	.L4
 208:../STM32_ETH_Driver/src/stm32_eth.c ****   {
 209:../STM32_ETH_Driver/src/stm32_eth.c ****     /* CSR Clock Range between 35-60 MHz */ 
 210:../STM32_ETH_Driver/src/stm32_eth.c ****     tmpreg |= (uint32_t)ETH_MACMIIAR_CR_Div26;    
 124              		.loc 1 210 0 is_stmt 1
 125 005a 7B6A     		ldr	r3, [r7, #36]
 126 005c 43F00C03 		orr	r3, r3, #12
 127 0060 7B62     		str	r3, [r7, #36]
 128              	.L4:
 211:../STM32_ETH_Driver/src/stm32_eth.c ****   }  
 212:../STM32_ETH_Driver/src/stm32_eth.c ****   else /* ((hclk >= 60000000)&&(hclk <= 72000000)) */
 213:../STM32_ETH_Driver/src/stm32_eth.c ****   {
 214:../STM32_ETH_Driver/src/stm32_eth.c ****     /* CSR Clock Range between 60-72 MHz */   
 215:../STM32_ETH_Driver/src/stm32_eth.c ****     tmpreg |= (uint32_t)ETH_MACMIIAR_CR_Div42;    
 216:../STM32_ETH_Driver/src/stm32_eth.c ****   }
 217:../STM32_ETH_Driver/src/stm32_eth.c ****   /* Write to ETHERNET MAC MIIAR: Configure the ETHERNET CSR Clock Range */
 218:../STM32_ETH_Driver/src/stm32_eth.c ****   ETH->MACMIIAR = (uint32_t)tmpreg;  
 129              		.loc 1 218 0
 130 0062 744A     		ldr	r2, .L9+4
 131 0064 7B6A     		ldr	r3, [r7, #36]
 132 0066 1361     		str	r3, [r2, #16]
 219:../STM32_ETH_Driver/src/stm32_eth.c ****   /*-------------------- PHY initialization and configuration ----------------*/
 220:../STM32_ETH_Driver/src/stm32_eth.c ****   /* Put the PHY in reset mode */
 221:../STM32_ETH_Driver/src/stm32_eth.c ****   if(!(ETH_WritePHYRegister(PHYAddress, PHY_BCR, PHY_Reset)))
 133              		.loc 1 221 0
 134 0068 7B88     		ldrh	r3, [r7, #2]
 135 006a 1846     		mov	r0, r3
 136 006c 0021     		movs	r1, #0
 137 006e 4FF40042 		mov	r2, #32768
 138 0072 FFF7FEFF 		bl	ETH_WritePHYRegister
 139 0076 0346     		mov	r3, r0
 140 0078 002B     		cmp	r3, #0
 141 007a 01D1     		bne	.L6
 222:../STM32_ETH_Driver/src/stm32_eth.c ****   {
 223:../STM32_ETH_Driver/src/stm32_eth.c ****     /* Return ERROR in case of write timeout */
 224:../STM32_ETH_Driver/src/stm32_eth.c ****     return ETH_ERROR;
 142              		.loc 1 224 0
 143 007c 0023     		movs	r3, #0
 144 007e D2E0     		b	.L8
 145              	.L6:
 225:../STM32_ETH_Driver/src/stm32_eth.c ****   }
 226:../STM32_ETH_Driver/src/stm32_eth.c ****   
 227:../STM32_ETH_Driver/src/stm32_eth.c ****   /* Delay to assure PHY reset */
 228:../STM32_ETH_Driver/src/stm32_eth.c ****   _eth_delay_(PHY_ResetDelay);
 146              		.loc 1 228 0
 147 0080 7048     		ldr	r0, .L9+20
 148 0082 FFF7FEFF 		bl	ETH_Delay
 229:../STM32_ETH_Driver/src/stm32_eth.c **** 
 230:../STM32_ETH_Driver/src/stm32_eth.c **** //#endif
 231:../STM32_ETH_Driver/src/stm32_eth.c ****   /*if(!(ETH_WritePHYRegister(PHYAddress, PHY_BCR, PHY_AutoNegotiation)))
 232:../STM32_ETH_Driver/src/stm32_eth.c ****   {
 233:../STM32_ETH_Driver/src/stm32_eth.c ****       return ETH_ERROR;
 234:../STM32_ETH_Driver/src/stm32_eth.c ****   }*/
 235:../STM32_ETH_Driver/src/stm32_eth.c ****   /*------------------------ ETHERNET MACCR Configuration --------------------*/
 236:../STM32_ETH_Driver/src/stm32_eth.c ****   /* Get the ETHERNET MACCR value */  
 237:../STM32_ETH_Driver/src/stm32_eth.c ****   tmpreg = ETH->MACCR;
 149              		.loc 1 237 0
 150 0086 6B4B     		ldr	r3, .L9+4
 151 0088 1B68     		ldr	r3, [r3]
 152 008a 7B62     		str	r3, [r7, #36]
 238:../STM32_ETH_Driver/src/stm32_eth.c ****   /* Clear WD, PCE, PS, TE and RE bits */
 239:../STM32_ETH_Driver/src/stm32_eth.c ****   tmpreg &= MACCR_CLEAR_MASK;
 153              		.loc 1 239 0
 154 008c 7A6A     		ldr	r2, [r7, #36]
 155 008e 6E4B     		ldr	r3, .L9+24
 156 0090 1340     		ands	r3, r3, r2
 157 0092 7B62     		str	r3, [r7, #36]
 240:../STM32_ETH_Driver/src/stm32_eth.c ****   /* Set the WD bit according to ETH_Watchdog value */
 241:../STM32_ETH_Driver/src/stm32_eth.c ****   /* Set the JD: bit according to ETH_Jabber value */
 242:../STM32_ETH_Driver/src/stm32_eth.c ****   /* Set the IFG bit according to ETH_InterFrameGap value */ 
 243:../STM32_ETH_Driver/src/stm32_eth.c ****   /* Set the DCRS bit according to ETH_CarrierSense value */  
 244:../STM32_ETH_Driver/src/stm32_eth.c ****   /* Set the FES bit according to ETH_Speed value */ 
 245:../STM32_ETH_Driver/src/stm32_eth.c ****   /* Set the DO bit according to ETH_ReceiveOwn value */ 
 246:../STM32_ETH_Driver/src/stm32_eth.c ****   /* Set the LM bit according to ETH_LoopbackMode value */ 
 247:../STM32_ETH_Driver/src/stm32_eth.c ****   /* Set the DM bit according to ETH_Mode value */ 
 248:../STM32_ETH_Driver/src/stm32_eth.c ****   /* Set the IPC bit according to ETH_ChecksumOffload value */                   
 249:../STM32_ETH_Driver/src/stm32_eth.c ****   /* Set the DR bit according to ETH_RetryTransmission value */ 
 250:../STM32_ETH_Driver/src/stm32_eth.c ****   /* Set the ACS bit according to ETH_AutomaticPadCRCStrip value */ 
 251:../STM32_ETH_Driver/src/stm32_eth.c ****   /* Set the BL bit according to ETH_BackOffLimit value */ 
 252:../STM32_ETH_Driver/src/stm32_eth.c ****   /* Set the DC bit according to ETH_DeferralCheck value */                          
 253:../STM32_ETH_Driver/src/stm32_eth.c ****   tmpreg |= (uint32_t)(ETH_InitStruct->ETH_Watchdog | 
 158              		.loc 1 253 0
 159 0094 7B68     		ldr	r3, [r7, #4]
 160 0096 5A68     		ldr	r2, [r3, #4]
 254:../STM32_ETH_Driver/src/stm32_eth.c ****                   ETH_InitStruct->ETH_Jabber | 
 161              		.loc 1 254 0
 162 0098 7B68     		ldr	r3, [r7, #4]
 163 009a 9B68     		ldr	r3, [r3, #8]
 253:../STM32_ETH_Driver/src/stm32_eth.c ****                   ETH_InitStruct->ETH_Jabber | 
 164              		.loc 1 253 0
 165 009c 1A43     		orrs	r2, r2, r3
 255:../STM32_ETH_Driver/src/stm32_eth.c ****                   ETH_InitStruct->ETH_InterFrameGap |
 166              		.loc 1 255 0
 167 009e 7B68     		ldr	r3, [r7, #4]
 168 00a0 DB68     		ldr	r3, [r3, #12]
 254:../STM32_ETH_Driver/src/stm32_eth.c ****                   ETH_InitStruct->ETH_Jabber | 
 169              		.loc 1 254 0
 170 00a2 1A43     		orrs	r2, r2, r3
 256:../STM32_ETH_Driver/src/stm32_eth.c ****                   ETH_InitStruct->ETH_CarrierSense |
 171              		.loc 1 256 0
 172 00a4 7B68     		ldr	r3, [r7, #4]
 173 00a6 1B69     		ldr	r3, [r3, #16]
 255:../STM32_ETH_Driver/src/stm32_eth.c ****                   ETH_InitStruct->ETH_InterFrameGap |
 174              		.loc 1 255 0
 175 00a8 1A43     		orrs	r2, r2, r3
 257:../STM32_ETH_Driver/src/stm32_eth.c ****                   ETH_InitStruct->ETH_Speed | 
 176              		.loc 1 257 0
 177 00aa 7B68     		ldr	r3, [r7, #4]
 178 00ac 5B69     		ldr	r3, [r3, #20]
 256:../STM32_ETH_Driver/src/stm32_eth.c ****                   ETH_InitStruct->ETH_CarrierSense |
 179              		.loc 1 256 0
 180 00ae 1A43     		orrs	r2, r2, r3
 258:../STM32_ETH_Driver/src/stm32_eth.c ****                   ETH_InitStruct->ETH_ReceiveOwn |
 181              		.loc 1 258 0
 182 00b0 7B68     		ldr	r3, [r7, #4]
 183 00b2 9B69     		ldr	r3, [r3, #24]
 257:../STM32_ETH_Driver/src/stm32_eth.c ****                   ETH_InitStruct->ETH_Speed | 
 184              		.loc 1 257 0
 185 00b4 1A43     		orrs	r2, r2, r3
 259:../STM32_ETH_Driver/src/stm32_eth.c ****                   ETH_InitStruct->ETH_LoopbackMode |
 186              		.loc 1 259 0
 187 00b6 7B68     		ldr	r3, [r7, #4]
 188 00b8 DB69     		ldr	r3, [r3, #28]
 258:../STM32_ETH_Driver/src/stm32_eth.c ****                   ETH_InitStruct->ETH_ReceiveOwn |
 189              		.loc 1 258 0
 190 00ba 1A43     		orrs	r2, r2, r3
 260:../STM32_ETH_Driver/src/stm32_eth.c ****                   ETH_InitStruct->ETH_Mode | 
 191              		.loc 1 260 0
 192 00bc 7B68     		ldr	r3, [r7, #4]
 193 00be 1B6A     		ldr	r3, [r3, #32]
 259:../STM32_ETH_Driver/src/stm32_eth.c ****                   ETH_InitStruct->ETH_LoopbackMode |
 194              		.loc 1 259 0
 195 00c0 1A43     		orrs	r2, r2, r3
 261:../STM32_ETH_Driver/src/stm32_eth.c ****                   ETH_InitStruct->ETH_ChecksumOffload |    
 196              		.loc 1 261 0
 197 00c2 7B68     		ldr	r3, [r7, #4]
 198 00c4 5B6A     		ldr	r3, [r3, #36]
 260:../STM32_ETH_Driver/src/stm32_eth.c ****                   ETH_InitStruct->ETH_Mode | 
 199              		.loc 1 260 0
 200 00c6 1A43     		orrs	r2, r2, r3
 262:../STM32_ETH_Driver/src/stm32_eth.c ****                   ETH_InitStruct->ETH_RetryTransmission | 
 201              		.loc 1 262 0
 202 00c8 7B68     		ldr	r3, [r7, #4]
 203 00ca 9B6A     		ldr	r3, [r3, #40]
 261:../STM32_ETH_Driver/src/stm32_eth.c ****                   ETH_InitStruct->ETH_ChecksumOffload |    
 204              		.loc 1 261 0
 205 00cc 1A43     		orrs	r2, r2, r3
 263:../STM32_ETH_Driver/src/stm32_eth.c ****                   ETH_InitStruct->ETH_AutomaticPadCRCStrip | 
 206              		.loc 1 263 0
 207 00ce 7B68     		ldr	r3, [r7, #4]
 208 00d0 DB6A     		ldr	r3, [r3, #44]
 262:../STM32_ETH_Driver/src/stm32_eth.c ****                   ETH_InitStruct->ETH_RetryTransmission | 
 209              		.loc 1 262 0
 210 00d2 1A43     		orrs	r2, r2, r3
 264:../STM32_ETH_Driver/src/stm32_eth.c ****                   ETH_InitStruct->ETH_BackOffLimit | 
 211              		.loc 1 264 0
 212 00d4 7B68     		ldr	r3, [r7, #4]
 213 00d6 1B6B     		ldr	r3, [r3, #48]
 263:../STM32_ETH_Driver/src/stm32_eth.c ****                   ETH_InitStruct->ETH_AutomaticPadCRCStrip | 
 214              		.loc 1 263 0
 215 00d8 1A43     		orrs	r2, r2, r3
 265:../STM32_ETH_Driver/src/stm32_eth.c ****                   ETH_InitStruct->ETH_DeferralCheck);
 216              		.loc 1 265 0
 217 00da 7B68     		ldr	r3, [r7, #4]
 218 00dc 5B6B     		ldr	r3, [r3, #52]
 253:../STM32_ETH_Driver/src/stm32_eth.c ****                   ETH_InitStruct->ETH_Jabber | 
 219              		.loc 1 253 0
 220 00de 1343     		orrs	r3, r3, r2
 221 00e0 7A6A     		ldr	r2, [r7, #36]
 222 00e2 1343     		orrs	r3, r3, r2
 223 00e4 7B62     		str	r3, [r7, #36]
 266:../STM32_ETH_Driver/src/stm32_eth.c ****   /* Write to ETHERNET MACCR */
 267:../STM32_ETH_Driver/src/stm32_eth.c ****   ETH->MACCR = (uint32_t)tmpreg;
 224              		.loc 1 267 0
 225 00e6 534A     		ldr	r2, .L9+4
 226 00e8 7B6A     		ldr	r3, [r7, #36]
 227 00ea 1360     		str	r3, [r2]
 268:../STM32_ETH_Driver/src/stm32_eth.c ****   
 269:../STM32_ETH_Driver/src/stm32_eth.c ****   /*----------------------- ETHERNET MACFFR Configuration --------------------*/ 
 270:../STM32_ETH_Driver/src/stm32_eth.c ****   /* Set the RA bit according to ETH_ReceiveAll value */
 271:../STM32_ETH_Driver/src/stm32_eth.c ****   /* Set the SAF and SAIF bits according to ETH_SourceAddrFilter value */
 272:../STM32_ETH_Driver/src/stm32_eth.c ****   /* Set the PCF bit according to ETH_PassControlFrames value */
 273:../STM32_ETH_Driver/src/stm32_eth.c ****   /* Set the DBF bit according to ETH_BroadcastFramesReception value */
 274:../STM32_ETH_Driver/src/stm32_eth.c ****   /* Set the DAIF bit according to ETH_DestinationAddrFilter value */
 275:../STM32_ETH_Driver/src/stm32_eth.c ****   /* Set the PR bit according to ETH_PromiscuousMode value */
 276:../STM32_ETH_Driver/src/stm32_eth.c ****   /* Set the PM, HMC and HPF bits according to ETH_MulticastFramesFilter value */
 277:../STM32_ETH_Driver/src/stm32_eth.c ****   /* Set the HUC and HPF bits according to ETH_UnicastFramesFilter value */
 278:../STM32_ETH_Driver/src/stm32_eth.c ****   /* Write to ETHERNET MACFFR */  
 279:../STM32_ETH_Driver/src/stm32_eth.c ****   ETH->MACFFR = (uint32_t)(ETH_InitStruct->ETH_ReceiveAll | 
 228              		.loc 1 279 0
 229 00ec 5149     		ldr	r1, .L9+4
 230 00ee 7B68     		ldr	r3, [r7, #4]
 231 00f0 9A6B     		ldr	r2, [r3, #56]
 280:../STM32_ETH_Driver/src/stm32_eth.c ****                           ETH_InitStruct->ETH_SourceAddrFilter |
 232              		.loc 1 280 0
 233 00f2 7B68     		ldr	r3, [r7, #4]
 234 00f4 DB6B     		ldr	r3, [r3, #60]
 279:../STM32_ETH_Driver/src/stm32_eth.c ****                           ETH_InitStruct->ETH_SourceAddrFilter |
 235              		.loc 1 279 0
 236 00f6 1A43     		orrs	r2, r2, r3
 281:../STM32_ETH_Driver/src/stm32_eth.c ****                           ETH_InitStruct->ETH_PassControlFrames |
 237              		.loc 1 281 0
 238 00f8 7B68     		ldr	r3, [r7, #4]
 239 00fa 1B6C     		ldr	r3, [r3, #64]
 280:../STM32_ETH_Driver/src/stm32_eth.c ****                           ETH_InitStruct->ETH_SourceAddrFilter |
 240              		.loc 1 280 0
 241 00fc 1A43     		orrs	r2, r2, r3
 282:../STM32_ETH_Driver/src/stm32_eth.c ****                           ETH_InitStruct->ETH_BroadcastFramesReception | 
 242              		.loc 1 282 0
 243 00fe 7B68     		ldr	r3, [r7, #4]
 244 0100 5B6C     		ldr	r3, [r3, #68]
 281:../STM32_ETH_Driver/src/stm32_eth.c ****                           ETH_InitStruct->ETH_PassControlFrames |
 245              		.loc 1 281 0
 246 0102 1A43     		orrs	r2, r2, r3
 283:../STM32_ETH_Driver/src/stm32_eth.c ****                           ETH_InitStruct->ETH_DestinationAddrFilter |
 247              		.loc 1 283 0
 248 0104 7B68     		ldr	r3, [r7, #4]
 249 0106 9B6C     		ldr	r3, [r3, #72]
 282:../STM32_ETH_Driver/src/stm32_eth.c ****                           ETH_InitStruct->ETH_BroadcastFramesReception | 
 250              		.loc 1 282 0
 251 0108 1A43     		orrs	r2, r2, r3
 284:../STM32_ETH_Driver/src/stm32_eth.c ****                           ETH_InitStruct->ETH_PromiscuousMode |
 252              		.loc 1 284 0
 253 010a 7B68     		ldr	r3, [r7, #4]
 254 010c DB6C     		ldr	r3, [r3, #76]
 283:../STM32_ETH_Driver/src/stm32_eth.c ****                           ETH_InitStruct->ETH_DestinationAddrFilter |
 255              		.loc 1 283 0
 256 010e 1A43     		orrs	r2, r2, r3
 285:../STM32_ETH_Driver/src/stm32_eth.c ****                           ETH_InitStruct->ETH_MulticastFramesFilter |
 257              		.loc 1 285 0
 258 0110 7B68     		ldr	r3, [r7, #4]
 259 0112 1B6D     		ldr	r3, [r3, #80]
 284:../STM32_ETH_Driver/src/stm32_eth.c ****                           ETH_InitStruct->ETH_PromiscuousMode |
 260              		.loc 1 284 0
 261 0114 1A43     		orrs	r2, r2, r3
 286:../STM32_ETH_Driver/src/stm32_eth.c ****                           ETH_InitStruct->ETH_UnicastFramesFilter); 
 262              		.loc 1 286 0
 263 0116 7B68     		ldr	r3, [r7, #4]
 264 0118 5B6D     		ldr	r3, [r3, #84]
 279:../STM32_ETH_Driver/src/stm32_eth.c ****                           ETH_InitStruct->ETH_SourceAddrFilter |
 265              		.loc 1 279 0
 266 011a 1343     		orrs	r3, r3, r2
 267 011c 4B60     		str	r3, [r1, #4]
 287:../STM32_ETH_Driver/src/stm32_eth.c ****   /*--------------- ETHERNET MACHTHR and MACHTLR Configuration ---------------*/
 288:../STM32_ETH_Driver/src/stm32_eth.c ****   /* Write to ETHERNET MACHTHR */
 289:../STM32_ETH_Driver/src/stm32_eth.c ****   ETH->MACHTHR = (uint32_t)ETH_InitStruct->ETH_HashTableHigh;
 268              		.loc 1 289 0
 269 011e 454A     		ldr	r2, .L9+4
 270 0120 7B68     		ldr	r3, [r7, #4]
 271 0122 9B6D     		ldr	r3, [r3, #88]
 272 0124 9360     		str	r3, [r2, #8]
 290:../STM32_ETH_Driver/src/stm32_eth.c ****   /* Write to ETHERNET MACHTLR */
 291:../STM32_ETH_Driver/src/stm32_eth.c ****   ETH->MACHTLR = (uint32_t)ETH_InitStruct->ETH_HashTableLow;
 273              		.loc 1 291 0
 274 0126 434A     		ldr	r2, .L9+4
 275 0128 7B68     		ldr	r3, [r7, #4]
 276 012a DB6D     		ldr	r3, [r3, #92]
 277 012c D360     		str	r3, [r2, #12]
 292:../STM32_ETH_Driver/src/stm32_eth.c ****   /*----------------------- ETHERNET MACFCR Configuration --------------------*/
 293:../STM32_ETH_Driver/src/stm32_eth.c ****   /* Get the ETHERNET MACFCR value */  
 294:../STM32_ETH_Driver/src/stm32_eth.c ****   tmpreg = ETH->MACFCR;
 278              		.loc 1 294 0
 279 012e 414B     		ldr	r3, .L9+4
 280 0130 9B69     		ldr	r3, [r3, #24]
 281 0132 7B62     		str	r3, [r7, #36]
 295:../STM32_ETH_Driver/src/stm32_eth.c ****   /* Clear xx bits */
 296:../STM32_ETH_Driver/src/stm32_eth.c ****   tmpreg &= MACFCR_CLEAR_MASK;
 282              		.loc 1 296 0
 283 0134 7A6A     		ldr	r2, [r7, #36]
 284 0136 4FF64173 		movw	r3, #65345
 285 013a 1340     		ands	r3, r3, r2
 286 013c 7B62     		str	r3, [r7, #36]
 297:../STM32_ETH_Driver/src/stm32_eth.c ****   
 298:../STM32_ETH_Driver/src/stm32_eth.c ****   /* Set the PT bit according to ETH_PauseTime value */
 299:../STM32_ETH_Driver/src/stm32_eth.c ****   /* Set the DZPQ bit according to ETH_ZeroQuantaPause value */
 300:../STM32_ETH_Driver/src/stm32_eth.c ****   /* Set the PLT bit according to ETH_PauseLowThreshold value */
 301:../STM32_ETH_Driver/src/stm32_eth.c ****   /* Set the UP bit according to ETH_UnicastPauseFrameDetect value */
 302:../STM32_ETH_Driver/src/stm32_eth.c ****   /* Set the RFE bit according to ETH_ReceiveFlowControl value */
 303:../STM32_ETH_Driver/src/stm32_eth.c ****   /* Set the TFE bit according to ETH_TransmitFlowControl value */  
 304:../STM32_ETH_Driver/src/stm32_eth.c ****   tmpreg |= (uint32_t)((ETH_InitStruct->ETH_PauseTime << 16) | 
 287              		.loc 1 304 0
 288 013e 7B68     		ldr	r3, [r7, #4]
 289 0140 1B6E     		ldr	r3, [r3, #96]
 290 0142 1A04     		lsls	r2, r3, #16
 305:../STM32_ETH_Driver/src/stm32_eth.c ****                    ETH_InitStruct->ETH_ZeroQuantaPause |
 291              		.loc 1 305 0
 292 0144 7B68     		ldr	r3, [r7, #4]
 293 0146 5B6E     		ldr	r3, [r3, #100]
 304:../STM32_ETH_Driver/src/stm32_eth.c ****                    ETH_InitStruct->ETH_ZeroQuantaPause |
 294              		.loc 1 304 0
 295 0148 1A43     		orrs	r2, r2, r3
 306:../STM32_ETH_Driver/src/stm32_eth.c ****                    ETH_InitStruct->ETH_PauseLowThreshold |
 296              		.loc 1 306 0
 297 014a 7B68     		ldr	r3, [r7, #4]
 298 014c 9B6E     		ldr	r3, [r3, #104]
 305:../STM32_ETH_Driver/src/stm32_eth.c ****                    ETH_InitStruct->ETH_ZeroQuantaPause |
 299              		.loc 1 305 0
 300 014e 1A43     		orrs	r2, r2, r3
 307:../STM32_ETH_Driver/src/stm32_eth.c ****                    ETH_InitStruct->ETH_UnicastPauseFrameDetect | 
 301              		.loc 1 307 0
 302 0150 7B68     		ldr	r3, [r7, #4]
 303 0152 DB6E     		ldr	r3, [r3, #108]
 306:../STM32_ETH_Driver/src/stm32_eth.c ****                    ETH_InitStruct->ETH_PauseLowThreshold |
 304              		.loc 1 306 0
 305 0154 1A43     		orrs	r2, r2, r3
 308:../STM32_ETH_Driver/src/stm32_eth.c ****                    ETH_InitStruct->ETH_ReceiveFlowControl |
 306              		.loc 1 308 0
 307 0156 7B68     		ldr	r3, [r7, #4]
 308 0158 1B6F     		ldr	r3, [r3, #112]
 307:../STM32_ETH_Driver/src/stm32_eth.c ****                    ETH_InitStruct->ETH_UnicastPauseFrameDetect | 
 309              		.loc 1 307 0
 310 015a 1A43     		orrs	r2, r2, r3
 309:../STM32_ETH_Driver/src/stm32_eth.c ****                    ETH_InitStruct->ETH_TransmitFlowControl); 
 311              		.loc 1 309 0
 312 015c 7B68     		ldr	r3, [r7, #4]
 313 015e 5B6F     		ldr	r3, [r3, #116]
 304:../STM32_ETH_Driver/src/stm32_eth.c ****                    ETH_InitStruct->ETH_ZeroQuantaPause |
 314              		.loc 1 304 0
 315 0160 1343     		orrs	r3, r3, r2
 316 0162 7A6A     		ldr	r2, [r7, #36]
 317 0164 1343     		orrs	r3, r3, r2
 318 0166 7B62     		str	r3, [r7, #36]
 310:../STM32_ETH_Driver/src/stm32_eth.c ****   /* Write to ETHERNET MACFCR */
 311:../STM32_ETH_Driver/src/stm32_eth.c ****   ETH->MACFCR = (uint32_t)tmpreg;
 319              		.loc 1 311 0
 320 0168 324A     		ldr	r2, .L9+4
 321 016a 7B6A     		ldr	r3, [r7, #36]
 322 016c 9361     		str	r3, [r2, #24]
 312:../STM32_ETH_Driver/src/stm32_eth.c ****   /*----------------------- ETHERNET MACVLANTR Configuration -----------------*/
 313:../STM32_ETH_Driver/src/stm32_eth.c ****   /* Set the ETV bit according to ETH_VLANTagComparison value */
 314:../STM32_ETH_Driver/src/stm32_eth.c ****   /* Set the VL bit according to ETH_VLANTagIdentifier value */  
 315:../STM32_ETH_Driver/src/stm32_eth.c ****   ETH->MACVLANTR = (uint32_t)(ETH_InitStruct->ETH_VLANTagComparison | 
 323              		.loc 1 315 0
 324 016e 3149     		ldr	r1, .L9+4
 325 0170 7B68     		ldr	r3, [r7, #4]
 326 0172 9A6F     		ldr	r2, [r3, #120]
 316:../STM32_ETH_Driver/src/stm32_eth.c ****                              ETH_InitStruct->ETH_VLANTagIdentifier); 
 327              		.loc 1 316 0
 328 0174 7B68     		ldr	r3, [r7, #4]
 329 0176 DB6F     		ldr	r3, [r3, #124]
 315:../STM32_ETH_Driver/src/stm32_eth.c ****                              ETH_InitStruct->ETH_VLANTagIdentifier); 
 330              		.loc 1 315 0
 331 0178 1343     		orrs	r3, r3, r2
 332 017a CB61     		str	r3, [r1, #28]
 317:../STM32_ETH_Driver/src/stm32_eth.c ****        
 318:../STM32_ETH_Driver/src/stm32_eth.c ****   /*-------------------------------- DMA Config ------------------------------*/
 319:../STM32_ETH_Driver/src/stm32_eth.c ****   /*----------------------- ETHERNET DMAOMR Configuration --------------------*/
 320:../STM32_ETH_Driver/src/stm32_eth.c ****   /* Get the ETHERNET DMAOMR value */  
 321:../STM32_ETH_Driver/src/stm32_eth.c ****   tmpreg = ETH->DMAOMR;
 333              		.loc 1 321 0
 334 017c 2D4B     		ldr	r3, .L9+4
 335 017e 03F58053 		add	r3, r3, #4096
 336 0182 1833     		adds	r3, r3, #24
 337 0184 1B68     		ldr	r3, [r3]
 338 0186 7B62     		str	r3, [r7, #36]
 322:../STM32_ETH_Driver/src/stm32_eth.c ****   /* Clear xx bits */
 323:../STM32_ETH_Driver/src/stm32_eth.c ****   tmpreg &= DMAOMR_CLEAR_MASK;
 339              		.loc 1 323 0
 340 0188 7A6A     		ldr	r2, [r7, #36]
 341 018a 304B     		ldr	r3, .L9+28
 342 018c 1340     		ands	r3, r3, r2
 343 018e 7B62     		str	r3, [r7, #36]
 324:../STM32_ETH_Driver/src/stm32_eth.c ****   
 325:../STM32_ETH_Driver/src/stm32_eth.c ****   /* Set the DT bit according to ETH_DropTCPIPChecksumErrorFrame value */
 326:../STM32_ETH_Driver/src/stm32_eth.c ****   /* Set the RSF bit according to ETH_ReceiveStoreForward value */
 327:../STM32_ETH_Driver/src/stm32_eth.c ****   /* Set the DFF bit according to ETH_FlushReceivedFrame value */
 328:../STM32_ETH_Driver/src/stm32_eth.c ****   /* Set the TSF bit according to ETH_TransmitStoreForward value */
 329:../STM32_ETH_Driver/src/stm32_eth.c ****   /* Set the TTC bit according to ETH_TransmitThresholdControl value */
 330:../STM32_ETH_Driver/src/stm32_eth.c ****   /* Set the FEF bit according to ETH_ForwardErrorFrames value */
 331:../STM32_ETH_Driver/src/stm32_eth.c ****   /* Set the FUF bit according to ETH_ForwardUndersizedGoodFrames value */
 332:../STM32_ETH_Driver/src/stm32_eth.c ****   /* Set the RTC bit according to ETH_ReceiveThresholdControl value */
 333:../STM32_ETH_Driver/src/stm32_eth.c ****   /* Set the OSF bit according to ETH_SecondFrameOperate value */
 334:../STM32_ETH_Driver/src/stm32_eth.c ****   tmpreg |= (uint32_t)(ETH_InitStruct->ETH_DropTCPIPChecksumErrorFrame | 
 344              		.loc 1 334 0
 345 0190 7B68     		ldr	r3, [r7, #4]
 346 0192 D3F88020 		ldr	r2, [r3, #128]
 335:../STM32_ETH_Driver/src/stm32_eth.c ****                   ETH_InitStruct->ETH_ReceiveStoreForward |
 347              		.loc 1 335 0
 348 0196 7B68     		ldr	r3, [r7, #4]
 349 0198 D3F88430 		ldr	r3, [r3, #132]
 334:../STM32_ETH_Driver/src/stm32_eth.c ****                   ETH_InitStruct->ETH_ReceiveStoreForward |
 350              		.loc 1 334 0
 351 019c 1A43     		orrs	r2, r2, r3
 336:../STM32_ETH_Driver/src/stm32_eth.c ****                   ETH_InitStruct->ETH_FlushReceivedFrame |
 352              		.loc 1 336 0
 353 019e 7B68     		ldr	r3, [r7, #4]
 354 01a0 D3F88830 		ldr	r3, [r3, #136]
 335:../STM32_ETH_Driver/src/stm32_eth.c ****                   ETH_InitStruct->ETH_ReceiveStoreForward |
 355              		.loc 1 335 0
 356 01a4 1A43     		orrs	r2, r2, r3
 337:../STM32_ETH_Driver/src/stm32_eth.c ****                   ETH_InitStruct->ETH_TransmitStoreForward | 
 357              		.loc 1 337 0
 358 01a6 7B68     		ldr	r3, [r7, #4]
 359 01a8 D3F88C30 		ldr	r3, [r3, #140]
 336:../STM32_ETH_Driver/src/stm32_eth.c ****                   ETH_InitStruct->ETH_FlushReceivedFrame |
 360              		.loc 1 336 0
 361 01ac 1A43     		orrs	r2, r2, r3
 338:../STM32_ETH_Driver/src/stm32_eth.c ****                   ETH_InitStruct->ETH_TransmitThresholdControl |
 362              		.loc 1 338 0
 363 01ae 7B68     		ldr	r3, [r7, #4]
 364 01b0 D3F89030 		ldr	r3, [r3, #144]
 337:../STM32_ETH_Driver/src/stm32_eth.c ****                   ETH_InitStruct->ETH_TransmitStoreForward | 
 365              		.loc 1 337 0
 366 01b4 1A43     		orrs	r2, r2, r3
 339:../STM32_ETH_Driver/src/stm32_eth.c ****                   ETH_InitStruct->ETH_ForwardErrorFrames |
 367              		.loc 1 339 0
 368 01b6 7B68     		ldr	r3, [r7, #4]
 369 01b8 D3F89430 		ldr	r3, [r3, #148]
 338:../STM32_ETH_Driver/src/stm32_eth.c ****                   ETH_InitStruct->ETH_TransmitThresholdControl |
 370              		.loc 1 338 0
 371 01bc 1A43     		orrs	r2, r2, r3
 340:../STM32_ETH_Driver/src/stm32_eth.c ****                   ETH_InitStruct->ETH_ForwardUndersizedGoodFrames |
 372              		.loc 1 340 0
 373 01be 7B68     		ldr	r3, [r7, #4]
 374 01c0 D3F89830 		ldr	r3, [r3, #152]
 339:../STM32_ETH_Driver/src/stm32_eth.c ****                   ETH_InitStruct->ETH_ForwardErrorFrames |
 375              		.loc 1 339 0
 376 01c4 1A43     		orrs	r2, r2, r3
 341:../STM32_ETH_Driver/src/stm32_eth.c ****                   ETH_InitStruct->ETH_ReceiveThresholdControl |                                   
 377              		.loc 1 341 0
 378 01c6 7B68     		ldr	r3, [r7, #4]
 379 01c8 D3F89C30 		ldr	r3, [r3, #156]
 340:../STM32_ETH_Driver/src/stm32_eth.c ****                   ETH_InitStruct->ETH_ForwardUndersizedGoodFrames |
 380              		.loc 1 340 0
 381 01cc 1A43     		orrs	r2, r2, r3
 342:../STM32_ETH_Driver/src/stm32_eth.c ****                   ETH_InitStruct->ETH_SecondFrameOperate); 
 382              		.loc 1 342 0
 383 01ce 7B68     		ldr	r3, [r7, #4]
 384 01d0 D3F8A030 		ldr	r3, [r3, #160]
 334:../STM32_ETH_Driver/src/stm32_eth.c ****                   ETH_InitStruct->ETH_ReceiveStoreForward |
 385              		.loc 1 334 0
 386 01d4 1343     		orrs	r3, r3, r2
 387 01d6 7A6A     		ldr	r2, [r7, #36]
 388 01d8 1343     		orrs	r3, r3, r2
 389 01da 7B62     		str	r3, [r7, #36]
 343:../STM32_ETH_Driver/src/stm32_eth.c ****   /* Write to ETHERNET DMAOMR */
 344:../STM32_ETH_Driver/src/stm32_eth.c ****   ETH->DMAOMR = (uint32_t)tmpreg;
 390              		.loc 1 344 0
 391 01dc 154B     		ldr	r3, .L9+4
 392 01de 03F58053 		add	r3, r3, #4096
 393 01e2 1833     		adds	r3, r3, #24
 394 01e4 7A6A     		ldr	r2, [r7, #36]
 395 01e6 1A60     		str	r2, [r3]
 345:../STM32_ETH_Driver/src/stm32_eth.c ****   
 346:../STM32_ETH_Driver/src/stm32_eth.c ****   /*----------------------- ETHERNET DMABMR Configuration --------------------*/ 
 347:../STM32_ETH_Driver/src/stm32_eth.c ****   /* Set the AAL bit according to ETH_AddressAlignedBeats value */
 348:../STM32_ETH_Driver/src/stm32_eth.c ****   /* Set the FB bit according to ETH_FixedBurst value */
 349:../STM32_ETH_Driver/src/stm32_eth.c ****   /* Set the RPBL and 4*PBL bits according to ETH_RxDMABurstLength value */
 350:../STM32_ETH_Driver/src/stm32_eth.c ****   /* Set the PBL and 4*PBL bits according to ETH_TxDMABurstLength value */
 351:../STM32_ETH_Driver/src/stm32_eth.c ****   /* Set the DSL bit according to ETH_DesciptorSkipLength value */
 352:../STM32_ETH_Driver/src/stm32_eth.c ****   /* Set the PR and DA bits according to ETH_DMAArbitration value */         
 353:../STM32_ETH_Driver/src/stm32_eth.c ****   ETH->DMABMR = (uint32_t)(ETH_InitStruct->ETH_AddressAlignedBeats | 
 396              		.loc 1 353 0
 397 01e8 1249     		ldr	r1, .L9+4
 398 01ea 7B68     		ldr	r3, [r7, #4]
 399 01ec D3F8A420 		ldr	r2, [r3, #164]
 354:../STM32_ETH_Driver/src/stm32_eth.c ****                           ETH_InitStruct->ETH_FixedBurst |
 400              		.loc 1 354 0
 401 01f0 7B68     		ldr	r3, [r7, #4]
 402 01f2 D3F8A830 		ldr	r3, [r3, #168]
 353:../STM32_ETH_Driver/src/stm32_eth.c ****                           ETH_InitStruct->ETH_FixedBurst |
 403              		.loc 1 353 0
 404 01f6 1A43     		orrs	r2, r2, r3
 355:../STM32_ETH_Driver/src/stm32_eth.c ****                           ETH_InitStruct->ETH_RxDMABurstLength | /* !! if 4xPBL is selected for Tx 
 405              		.loc 1 355 0
 406 01f8 7B68     		ldr	r3, [r7, #4]
 407 01fa D3F8AC30 		ldr	r3, [r3, #172]
 354:../STM32_ETH_Driver/src/stm32_eth.c ****                           ETH_InitStruct->ETH_FixedBurst |
 408              		.loc 1 354 0
 409 01fe 1A43     		orrs	r2, r2, r3
 356:../STM32_ETH_Driver/src/stm32_eth.c ****                           ETH_InitStruct->ETH_TxDMABurstLength | 
 410              		.loc 1 356 0
 411 0200 7B68     		ldr	r3, [r7, #4]
 412 0202 D3F8B030 		ldr	r3, [r3, #176]
 355:../STM32_ETH_Driver/src/stm32_eth.c ****                           ETH_InitStruct->ETH_RxDMABurstLength | /* !! if 4xPBL is selected for Tx 
 413              		.loc 1 355 0
 414 0206 1A43     		orrs	r2, r2, r3
 357:../STM32_ETH_Driver/src/stm32_eth.c ****                          (ETH_InitStruct->ETH_DescriptorSkipLength << 2) |
 415              		.loc 1 357 0
 416 0208 7B68     		ldr	r3, [r7, #4]
 417 020a D3F8B430 		ldr	r3, [r3, #180]
 418 020e 9B00     		lsls	r3, r3, #2
 356:../STM32_ETH_Driver/src/stm32_eth.c ****                           ETH_InitStruct->ETH_TxDMABurstLength | 
 419              		.loc 1 356 0
 420 0210 1A43     		orrs	r2, r2, r3
 358:../STM32_ETH_Driver/src/stm32_eth.c ****                           ETH_InitStruct->ETH_DMAArbitration |
 421              		.loc 1 358 0
 422 0212 7B68     		ldr	r3, [r7, #4]
 423 0214 D3F8B830 		ldr	r3, [r3, #184]
 357:../STM32_ETH_Driver/src/stm32_eth.c ****                          (ETH_InitStruct->ETH_DescriptorSkipLength << 2) |
 424              		.loc 1 357 0
 425 0218 1343     		orrs	r3, r3, r2
 353:../STM32_ETH_Driver/src/stm32_eth.c ****                           ETH_InitStruct->ETH_FixedBurst |
 426              		.loc 1 353 0
 427 021a 43F40002 		orr	r2, r3, #8388608
 428 021e 01F58053 		add	r3, r1, #4096
 429 0222 1A60     		str	r2, [r3]
 359:../STM32_ETH_Driver/src/stm32_eth.c ****                           ETH_DMABMR_USP); /* Enable use of separate PBL for Rx and Tx */  
 360:../STM32_ETH_Driver/src/stm32_eth.c ****   /* Return Ethernet configuration success */
 361:../STM32_ETH_Driver/src/stm32_eth.c ****   return ETH_SUCCESS;
 430              		.loc 1 361 0
 431 0224 0123     		movs	r3, #1
 432              	.L8:
 362:../STM32_ETH_Driver/src/stm32_eth.c **** }
 433              		.loc 1 362 0 discriminator 1
 434 0226 1846     		mov	r0, r3
 435 0228 2837     		adds	r7, r7, #40
 436              		.cfi_def_cfa_offset 8
 437 022a BD46     		mov	sp, r7
 438              		.cfi_def_cfa_register 13
 439              		@ sp needed
 440 022c 80BD     		pop	{r7, pc}
 441              	.L10:
 442 022e 00BF     		.align	2
 443              	.L9:
 444 0230 00879303 		.word	60000000
 445 0234 00800240 		.word	1073905664
 446 0238 FF2C3101 		.word	19999999
 447 023c BF0E1602 		.word	34999999
 448 0240 FF869303 		.word	59999999
 449 0244 FFFF0F00 		.word	1048575
 450 0248 0F8120FF 		.word	-14647025
 451 024c 233FDEF8 		.word	-119652573
 452              		.cfi_endproc
 453              	.LFE30:
 455              		.section	.text.ETH_StructInit,"ax",%progbits
 456              		.align	2
 457              		.global	ETH_StructInit
 458              		.thumb
 459              		.thumb_func
 461              	ETH_StructInit:
 462              	.LFB31:
 363:../STM32_ETH_Driver/src/stm32_eth.c **** 
 364:../STM32_ETH_Driver/src/stm32_eth.c **** /**
 365:../STM32_ETH_Driver/src/stm32_eth.c ****   * @brief  Fills each ETH_InitStruct member with its default value.
 366:../STM32_ETH_Driver/src/stm32_eth.c ****   * @param  ETH_InitStruct: pointer to a ETH_InitTypeDef structure which will be initialized.
 367:../STM32_ETH_Driver/src/stm32_eth.c ****   * @retval None
 368:../STM32_ETH_Driver/src/stm32_eth.c ****   */
 369:../STM32_ETH_Driver/src/stm32_eth.c **** void ETH_StructInit(ETH_InitTypeDef* ETH_InitStruct)
 370:../STM32_ETH_Driver/src/stm32_eth.c **** {
 463              		.loc 1 370 0
 464              		.cfi_startproc
 465              		@ args = 0, pretend = 0, frame = 8
 466              		@ frame_needed = 1, uses_anonymous_args = 0
 467              		@ link register save eliminated.
 468 0000 80B4     		push	{r7}
 469              		.cfi_def_cfa_offset 4
 470              		.cfi_offset 7, -4
 471 0002 83B0     		sub	sp, sp, #12
 472              		.cfi_def_cfa_offset 16
 473 0004 00AF     		add	r7, sp, #0
 474              		.cfi_def_cfa_register 7
 475 0006 7860     		str	r0, [r7, #4]
 371:../STM32_ETH_Driver/src/stm32_eth.c ****   /* ETH_InitStruct members default value */
 372:../STM32_ETH_Driver/src/stm32_eth.c ****   /*------------------------   MAC   -----------------------------------*/     
 373:../STM32_ETH_Driver/src/stm32_eth.c ****   ETH_InitStruct->ETH_AutoNegotiation = ETH_AutoNegotiation_Disable;           
 476              		.loc 1 373 0
 477 0008 7B68     		ldr	r3, [r7, #4]
 478 000a 0022     		movs	r2, #0
 479 000c 1A60     		str	r2, [r3]
 374:../STM32_ETH_Driver/src/stm32_eth.c ****   ETH_InitStruct->ETH_Watchdog = ETH_Watchdog_Enable;                   
 480              		.loc 1 374 0
 481 000e 7B68     		ldr	r3, [r7, #4]
 482 0010 0022     		movs	r2, #0
 483 0012 5A60     		str	r2, [r3, #4]
 375:../STM32_ETH_Driver/src/stm32_eth.c ****   ETH_InitStruct->ETH_Jabber = ETH_Jabber_Enable;                                                  
 484              		.loc 1 375 0
 485 0014 7B68     		ldr	r3, [r7, #4]
 486 0016 0022     		movs	r2, #0
 487 0018 9A60     		str	r2, [r3, #8]
 376:../STM32_ETH_Driver/src/stm32_eth.c ****   ETH_InitStruct->ETH_InterFrameGap = ETH_InterFrameGap_96Bit;                                     
 488              		.loc 1 376 0
 489 001a 7B68     		ldr	r3, [r7, #4]
 490 001c 0022     		movs	r2, #0
 491 001e DA60     		str	r2, [r3, #12]
 377:../STM32_ETH_Driver/src/stm32_eth.c ****   ETH_InitStruct->ETH_CarrierSense = ETH_CarrierSense_Enable;                              
 492              		.loc 1 377 0
 493 0020 7B68     		ldr	r3, [r7, #4]
 494 0022 0022     		movs	r2, #0
 495 0024 1A61     		str	r2, [r3, #16]
 378:../STM32_ETH_Driver/src/stm32_eth.c ****   ETH_InitStruct->ETH_Speed = ETH_Speed_10M;                       
 496              		.loc 1 378 0
 497 0026 7B68     		ldr	r3, [r7, #4]
 498 0028 0022     		movs	r2, #0
 499 002a 5A61     		str	r2, [r3, #20]
 379:../STM32_ETH_Driver/src/stm32_eth.c ****   ETH_InitStruct->ETH_ReceiveOwn = ETH_ReceiveOwn_Enable;               
 500              		.loc 1 379 0
 501 002c 7B68     		ldr	r3, [r7, #4]
 502 002e 0022     		movs	r2, #0
 503 0030 9A61     		str	r2, [r3, #24]
 380:../STM32_ETH_Driver/src/stm32_eth.c ****   ETH_InitStruct->ETH_LoopbackMode = ETH_LoopbackMode_Disable;              
 504              		.loc 1 380 0
 505 0032 7B68     		ldr	r3, [r7, #4]
 506 0034 0022     		movs	r2, #0
 507 0036 DA61     		str	r2, [r3, #28]
 381:../STM32_ETH_Driver/src/stm32_eth.c ****   ETH_InitStruct->ETH_Mode = ETH_Mode_HalfDuplex;                       
 508              		.loc 1 381 0
 509 0038 7B68     		ldr	r3, [r7, #4]
 510 003a 0022     		movs	r2, #0
 511 003c 1A62     		str	r2, [r3, #32]
 382:../STM32_ETH_Driver/src/stm32_eth.c ****   ETH_InitStruct->ETH_ChecksumOffload = ETH_ChecksumOffload_Disable;                               
 512              		.loc 1 382 0
 513 003e 7B68     		ldr	r3, [r7, #4]
 514 0040 0022     		movs	r2, #0
 515 0042 5A62     		str	r2, [r3, #36]
 383:../STM32_ETH_Driver/src/stm32_eth.c ****   ETH_InitStruct->ETH_RetryTransmission = ETH_RetryTransmission_Enable;                            
 516              		.loc 1 383 0
 517 0044 7B68     		ldr	r3, [r7, #4]
 518 0046 0022     		movs	r2, #0
 519 0048 9A62     		str	r2, [r3, #40]
 384:../STM32_ETH_Driver/src/stm32_eth.c ****   ETH_InitStruct->ETH_AutomaticPadCRCStrip = ETH_AutomaticPadCRCStrip_Disable;                     
 520              		.loc 1 384 0
 521 004a 7B68     		ldr	r3, [r7, #4]
 522 004c 0022     		movs	r2, #0
 523 004e DA62     		str	r2, [r3, #44]
 385:../STM32_ETH_Driver/src/stm32_eth.c ****   ETH_InitStruct->ETH_BackOffLimit = ETH_BackOffLimit_10;                                          
 524              		.loc 1 385 0
 525 0050 7B68     		ldr	r3, [r7, #4]
 526 0052 0022     		movs	r2, #0
 527 0054 1A63     		str	r2, [r3, #48]
 386:../STM32_ETH_Driver/src/stm32_eth.c ****   ETH_InitStruct->ETH_DeferralCheck = ETH_DeferralCheck_Disable;                                   
 528              		.loc 1 386 0
 529 0056 7B68     		ldr	r3, [r7, #4]
 530 0058 0022     		movs	r2, #0
 531 005a 5A63     		str	r2, [r3, #52]
 387:../STM32_ETH_Driver/src/stm32_eth.c ****   ETH_InitStruct->ETH_ReceiveAll = ETH_ReceiveAll_Disable;                                         
 532              		.loc 1 387 0
 533 005c 7B68     		ldr	r3, [r7, #4]
 534 005e 0022     		movs	r2, #0
 535 0060 9A63     		str	r2, [r3, #56]
 388:../STM32_ETH_Driver/src/stm32_eth.c ****   ETH_InitStruct->ETH_SourceAddrFilter = ETH_SourceAddrFilter_Disable;                             
 536              		.loc 1 388 0
 537 0062 7B68     		ldr	r3, [r7, #4]
 538 0064 0022     		movs	r2, #0
 539 0066 DA63     		str	r2, [r3, #60]
 389:../STM32_ETH_Driver/src/stm32_eth.c ****   ETH_InitStruct->ETH_PassControlFrames = ETH_PassControlFrames_BlockAll;          
 540              		.loc 1 389 0
 541 0068 7B68     		ldr	r3, [r7, #4]
 542 006a 4022     		movs	r2, #64
 543 006c 1A64     		str	r2, [r3, #64]
 390:../STM32_ETH_Driver/src/stm32_eth.c ****   ETH_InitStruct->ETH_BroadcastFramesReception = ETH_BroadcastFramesReception_Disable;
 544              		.loc 1 390 0
 545 006e 7B68     		ldr	r3, [r7, #4]
 546 0070 2022     		movs	r2, #32
 547 0072 5A64     		str	r2, [r3, #68]
 391:../STM32_ETH_Driver/src/stm32_eth.c ****   ETH_InitStruct->ETH_DestinationAddrFilter = ETH_DestinationAddrFilter_Normal;      
 548              		.loc 1 391 0
 549 0074 7B68     		ldr	r3, [r7, #4]
 550 0076 0022     		movs	r2, #0
 551 0078 9A64     		str	r2, [r3, #72]
 392:../STM32_ETH_Driver/src/stm32_eth.c ****   ETH_InitStruct->ETH_PromiscuousMode = ETH_PromiscuousMode_Disable;                               
 552              		.loc 1 392 0
 553 007a 7B68     		ldr	r3, [r7, #4]
 554 007c 0022     		movs	r2, #0
 555 007e DA64     		str	r2, [r3, #76]
 393:../STM32_ETH_Driver/src/stm32_eth.c ****   ETH_InitStruct->ETH_MulticastFramesFilter = ETH_MulticastFramesFilter_Perfect;      
 556              		.loc 1 393 0
 557 0080 7B68     		ldr	r3, [r7, #4]
 558 0082 0022     		movs	r2, #0
 559 0084 1A65     		str	r2, [r3, #80]
 394:../STM32_ETH_Driver/src/stm32_eth.c ****   ETH_InitStruct->ETH_UnicastFramesFilter = ETH_UnicastFramesFilter_Perfect;      
 560              		.loc 1 394 0
 561 0086 7B68     		ldr	r3, [r7, #4]
 562 0088 0022     		movs	r2, #0
 563 008a 5A65     		str	r2, [r3, #84]
 395:../STM32_ETH_Driver/src/stm32_eth.c ****   ETH_InitStruct->ETH_HashTableHigh = 0x0;                
 564              		.loc 1 395 0
 565 008c 7B68     		ldr	r3, [r7, #4]
 566 008e 0022     		movs	r2, #0
 567 0090 9A65     		str	r2, [r3, #88]
 396:../STM32_ETH_Driver/src/stm32_eth.c ****   ETH_InitStruct->ETH_HashTableLow = 0x0;                     
 568              		.loc 1 396 0
 569 0092 7B68     		ldr	r3, [r7, #4]
 570 0094 0022     		movs	r2, #0
 571 0096 DA65     		str	r2, [r3, #92]
 397:../STM32_ETH_Driver/src/stm32_eth.c ****   ETH_InitStruct->ETH_PauseTime = 0x0;                 
 572              		.loc 1 397 0
 573 0098 7B68     		ldr	r3, [r7, #4]
 574 009a 0022     		movs	r2, #0
 575 009c 1A66     		str	r2, [r3, #96]
 398:../STM32_ETH_Driver/src/stm32_eth.c ****   ETH_InitStruct->ETH_ZeroQuantaPause = ETH_ZeroQuantaPause_Disable;            
 576              		.loc 1 398 0
 577 009e 7B68     		ldr	r3, [r7, #4]
 578 00a0 8022     		movs	r2, #128
 579 00a2 5A66     		str	r2, [r3, #100]
 399:../STM32_ETH_Driver/src/stm32_eth.c ****   ETH_InitStruct->ETH_PauseLowThreshold = ETH_PauseLowThreshold_Minus4;         
 580              		.loc 1 399 0
 581 00a4 7B68     		ldr	r3, [r7, #4]
 582 00a6 0022     		movs	r2, #0
 583 00a8 9A66     		str	r2, [r3, #104]
 400:../STM32_ETH_Driver/src/stm32_eth.c ****   ETH_InitStruct->ETH_UnicastPauseFrameDetect = ETH_UnicastPauseFrameDetect_Disable;   
 584              		.loc 1 400 0
 585 00aa 7B68     		ldr	r3, [r7, #4]
 586 00ac 0022     		movs	r2, #0
 587 00ae DA66     		str	r2, [r3, #108]
 401:../STM32_ETH_Driver/src/stm32_eth.c ****   ETH_InitStruct->ETH_ReceiveFlowControl = ETH_ReceiveFlowControl_Disable;        
 588              		.loc 1 401 0
 589 00b0 7B68     		ldr	r3, [r7, #4]
 590 00b2 0022     		movs	r2, #0
 591 00b4 1A67     		str	r2, [r3, #112]
 402:../STM32_ETH_Driver/src/stm32_eth.c ****   ETH_InitStruct->ETH_TransmitFlowControl = ETH_TransmitFlowControl_Disable;      
 592              		.loc 1 402 0
 593 00b6 7B68     		ldr	r3, [r7, #4]
 594 00b8 0022     		movs	r2, #0
 595 00ba 5A67     		str	r2, [r3, #116]
 403:../STM32_ETH_Driver/src/stm32_eth.c ****   ETH_InitStruct->ETH_VLANTagComparison = ETH_VLANTagComparison_16Bit;          
 596              		.loc 1 403 0
 597 00bc 7B68     		ldr	r3, [r7, #4]
 598 00be 0022     		movs	r2, #0
 599 00c0 9A67     		str	r2, [r3, #120]
 404:../STM32_ETH_Driver/src/stm32_eth.c ****   ETH_InitStruct->ETH_VLANTagIdentifier = 0x0;          
 600              		.loc 1 404 0
 601 00c2 7B68     		ldr	r3, [r7, #4]
 602 00c4 0022     		movs	r2, #0
 603 00c6 DA67     		str	r2, [r3, #124]
 405:../STM32_ETH_Driver/src/stm32_eth.c ****   /*------------------------   DMA   -----------------------------------*/  
 406:../STM32_ETH_Driver/src/stm32_eth.c ****   ETH_InitStruct->ETH_DropTCPIPChecksumErrorFrame = ETH_DropTCPIPChecksumErrorFrame_Disable; 
 604              		.loc 1 406 0
 605 00c8 7B68     		ldr	r3, [r7, #4]
 606 00ca 4FF08062 		mov	r2, #67108864
 607 00ce C3F88020 		str	r2, [r3, #128]
 407:../STM32_ETH_Driver/src/stm32_eth.c ****   ETH_InitStruct->ETH_ReceiveStoreForward = ETH_ReceiveStoreForward_Enable;       
 608              		.loc 1 407 0
 609 00d2 7B68     		ldr	r3, [r7, #4]
 610 00d4 4FF00072 		mov	r2, #33554432
 611 00d8 C3F88420 		str	r2, [r3, #132]
 408:../STM32_ETH_Driver/src/stm32_eth.c ****   ETH_InitStruct->ETH_FlushReceivedFrame = ETH_FlushReceivedFrame_Disable;       
 612              		.loc 1 408 0
 613 00dc 7B68     		ldr	r3, [r7, #4]
 614 00de 4FF08072 		mov	r2, #16777216
 615 00e2 C3F88820 		str	r2, [r3, #136]
 409:../STM32_ETH_Driver/src/stm32_eth.c ****   ETH_InitStruct->ETH_TransmitStoreForward = ETH_TransmitStoreForward_Enable;     
 616              		.loc 1 409 0
 617 00e6 7B68     		ldr	r3, [r7, #4]
 618 00e8 4FF40012 		mov	r2, #2097152
 619 00ec C3F88C20 		str	r2, [r3, #140]
 410:../STM32_ETH_Driver/src/stm32_eth.c ****   ETH_InitStruct->ETH_TransmitThresholdControl = ETH_TransmitThresholdControl_64Bytes;  
 620              		.loc 1 410 0
 621 00f0 7B68     		ldr	r3, [r7, #4]
 622 00f2 0022     		movs	r2, #0
 623 00f4 C3F89020 		str	r2, [r3, #144]
 411:../STM32_ETH_Driver/src/stm32_eth.c ****   ETH_InitStruct->ETH_ForwardErrorFrames = ETH_ForwardErrorFrames_Disable;       
 624              		.loc 1 411 0
 625 00f8 7B68     		ldr	r3, [r7, #4]
 626 00fa 0022     		movs	r2, #0
 627 00fc C3F89420 		str	r2, [r3, #148]
 412:../STM32_ETH_Driver/src/stm32_eth.c ****   ETH_InitStruct->ETH_ForwardUndersizedGoodFrames = ETH_ForwardUndersizedGoodFrames_Disable; 
 628              		.loc 1 412 0
 629 0100 7B68     		ldr	r3, [r7, #4]
 630 0102 0022     		movs	r2, #0
 631 0104 C3F89820 		str	r2, [r3, #152]
 413:../STM32_ETH_Driver/src/stm32_eth.c ****   ETH_InitStruct->ETH_ReceiveThresholdControl = ETH_ReceiveThresholdControl_64Bytes;   
 632              		.loc 1 413 0
 633 0108 7B68     		ldr	r3, [r7, #4]
 634 010a 0022     		movs	r2, #0
 635 010c C3F89C20 		str	r2, [r3, #156]
 414:../STM32_ETH_Driver/src/stm32_eth.c ****   ETH_InitStruct->ETH_SecondFrameOperate = ETH_SecondFrameOperate_Disable;
 636              		.loc 1 414 0
 637 0110 7B68     		ldr	r3, [r7, #4]
 638 0112 0022     		movs	r2, #0
 639 0114 C3F8A020 		str	r2, [r3, #160]
 415:../STM32_ETH_Driver/src/stm32_eth.c ****   ETH_InitStruct->ETH_AddressAlignedBeats = ETH_AddressAlignedBeats_Enable;
 640              		.loc 1 415 0
 641 0118 7B68     		ldr	r3, [r7, #4]
 642 011a 4FF00072 		mov	r2, #33554432
 643 011e C3F8A420 		str	r2, [r3, #164]
 416:../STM32_ETH_Driver/src/stm32_eth.c ****   ETH_InitStruct->ETH_FixedBurst = ETH_FixedBurst_Disable;
 644              		.loc 1 416 0
 645 0122 7B68     		ldr	r3, [r7, #4]
 646 0124 0022     		movs	r2, #0
 647 0126 C3F8A820 		str	r2, [r3, #168]
 417:../STM32_ETH_Driver/src/stm32_eth.c ****   ETH_InitStruct->ETH_RxDMABurstLength = ETH_RxDMABurstLength_1Beat;
 648              		.loc 1 417 0
 649 012a 7B68     		ldr	r3, [r7, #4]
 650 012c 4FF40032 		mov	r2, #131072
 651 0130 C3F8AC20 		str	r2, [r3, #172]
 418:../STM32_ETH_Driver/src/stm32_eth.c ****   ETH_InitStruct->ETH_TxDMABurstLength = ETH_TxDMABurstLength_1Beat;
 652              		.loc 1 418 0
 653 0134 7B68     		ldr	r3, [r7, #4]
 654 0136 4FF48072 		mov	r2, #256
 655 013a C3F8B020 		str	r2, [r3, #176]
 419:../STM32_ETH_Driver/src/stm32_eth.c ****   ETH_InitStruct->ETH_DescriptorSkipLength = 0x0;
 656              		.loc 1 419 0
 657 013e 7B68     		ldr	r3, [r7, #4]
 658 0140 0022     		movs	r2, #0
 659 0142 C3F8B420 		str	r2, [r3, #180]
 420:../STM32_ETH_Driver/src/stm32_eth.c ****   ETH_InitStruct->ETH_DMAArbitration = ETH_DMAArbitration_RoundRobin_RxTx_1_1;
 660              		.loc 1 420 0
 661 0146 7B68     		ldr	r3, [r7, #4]
 662 0148 0022     		movs	r2, #0
 663 014a C3F8B820 		str	r2, [r3, #184]
 421:../STM32_ETH_Driver/src/stm32_eth.c **** }
 664              		.loc 1 421 0
 665 014e 0C37     		adds	r7, r7, #12
 666              		.cfi_def_cfa_offset 4
 667 0150 BD46     		mov	sp, r7
 668              		.cfi_def_cfa_register 13
 669              		@ sp needed
 670 0152 5DF8047B 		ldr	r7, [sp], #4
 671              		.cfi_restore 7
 672              		.cfi_def_cfa_offset 0
 673 0156 7047     		bx	lr
 674              		.cfi_endproc
 675              	.LFE31:
 677              		.section	.text.ETH_Start,"ax",%progbits
 678              		.align	2
 679              		.global	ETH_Start
 680              		.thumb
 681              		.thumb_func
 683              	ETH_Start:
 684              	.LFB32:
 422:../STM32_ETH_Driver/src/stm32_eth.c **** 
 423:../STM32_ETH_Driver/src/stm32_eth.c **** /**
 424:../STM32_ETH_Driver/src/stm32_eth.c ****   * @brief  Enables ENET MAC and DMA reception/transmission 
 425:../STM32_ETH_Driver/src/stm32_eth.c ****   * @param  None
 426:../STM32_ETH_Driver/src/stm32_eth.c ****   * @retval None
 427:../STM32_ETH_Driver/src/stm32_eth.c ****   */
 428:../STM32_ETH_Driver/src/stm32_eth.c **** void ETH_Start(void)
 429:../STM32_ETH_Driver/src/stm32_eth.c **** {
 685              		.loc 1 429 0
 686              		.cfi_startproc
 687              		@ args = 0, pretend = 0, frame = 0
 688              		@ frame_needed = 1, uses_anonymous_args = 0
 689 0000 80B5     		push	{r7, lr}
 690              		.cfi_def_cfa_offset 8
 691              		.cfi_offset 7, -8
 692              		.cfi_offset 14, -4
 693 0002 00AF     		add	r7, sp, #0
 694              		.cfi_def_cfa_register 7
 430:../STM32_ETH_Driver/src/stm32_eth.c ****   /* Enable transmit state machine of the MAC for transmission on the MII */  
 431:../STM32_ETH_Driver/src/stm32_eth.c ****   ETH_MACTransmissionCmd(ENABLE);
 695              		.loc 1 431 0
 696 0004 0120     		movs	r0, #1
 697 0006 FFF7FEFF 		bl	ETH_MACTransmissionCmd
 432:../STM32_ETH_Driver/src/stm32_eth.c ****   /* Flush Transmit FIFO */
 433:../STM32_ETH_Driver/src/stm32_eth.c ****   ETH_FlushTransmitFIFO();
 698              		.loc 1 433 0
 699 000a FFF7FEFF 		bl	ETH_FlushTransmitFIFO
 434:../STM32_ETH_Driver/src/stm32_eth.c ****   /* Enable receive state machine of the MAC for reception from the MII */  
 435:../STM32_ETH_Driver/src/stm32_eth.c ****   ETH_MACReceptionCmd(ENABLE);
 700              		.loc 1 435 0
 701 000e 0120     		movs	r0, #1
 702 0010 FFF7FEFF 		bl	ETH_MACReceptionCmd
 436:../STM32_ETH_Driver/src/stm32_eth.c ****  
 437:../STM32_ETH_Driver/src/stm32_eth.c ****   /* Start DMA transmission */
 438:../STM32_ETH_Driver/src/stm32_eth.c ****   ETH_DMATransmissionCmd(ENABLE); 
 703              		.loc 1 438 0
 704 0014 0120     		movs	r0, #1
 705 0016 FFF7FEFF 		bl	ETH_DMATransmissionCmd
 439:../STM32_ETH_Driver/src/stm32_eth.c ****   /* Start DMA reception */
 440:../STM32_ETH_Driver/src/stm32_eth.c ****   ETH_DMAReceptionCmd(ENABLE);   
 706              		.loc 1 440 0
 707 001a 0120     		movs	r0, #1
 708 001c FFF7FEFF 		bl	ETH_DMAReceptionCmd
 441:../STM32_ETH_Driver/src/stm32_eth.c **** }
 709              		.loc 1 441 0
 710 0020 80BD     		pop	{r7, pc}
 711              		.cfi_endproc
 712              	.LFE32:
 714 0022 00BF     		.section	.text.ETH_HandleTxPkt,"ax",%progbits
 715              		.align	2
 716              		.global	ETH_HandleTxPkt
 717              		.thumb
 718              		.thumb_func
 720              	ETH_HandleTxPkt:
 721              	.LFB33:
 442:../STM32_ETH_Driver/src/stm32_eth.c **** 
 443:../STM32_ETH_Driver/src/stm32_eth.c **** /**
 444:../STM32_ETH_Driver/src/stm32_eth.c ****   * @brief  Transmits a packet, from application buffer, pointed by ppkt.
 445:../STM32_ETH_Driver/src/stm32_eth.c ****   * @param  ppkt: pointer to the application's packet buffer to transmit.
 446:../STM32_ETH_Driver/src/stm32_eth.c ****   * @param  FrameLength: Tx Packet size.
 447:../STM32_ETH_Driver/src/stm32_eth.c ****   * @retval ETH_ERROR: in case of Tx desc owned by DMA
 448:../STM32_ETH_Driver/src/stm32_eth.c ****   *         ETH_SUCCESS: for correct transmission
 449:../STM32_ETH_Driver/src/stm32_eth.c ****   */
 450:../STM32_ETH_Driver/src/stm32_eth.c **** uint32_t ETH_HandleTxPkt(uint8_t *ppkt, uint16_t FrameLength)
 451:../STM32_ETH_Driver/src/stm32_eth.c **** { 
 722              		.loc 1 451 0
 723              		.cfi_startproc
 724              		@ args = 0, pretend = 0, frame = 16
 725              		@ frame_needed = 1, uses_anonymous_args = 0
 726              		@ link register save eliminated.
 727 0000 80B4     		push	{r7}
 728              		.cfi_def_cfa_offset 4
 729              		.cfi_offset 7, -4
 730 0002 85B0     		sub	sp, sp, #20
 731              		.cfi_def_cfa_offset 24
 732 0004 00AF     		add	r7, sp, #0
 733              		.cfi_def_cfa_register 7
 734 0006 7860     		str	r0, [r7, #4]
 735 0008 0B46     		mov	r3, r1
 736 000a 7B80     		strh	r3, [r7, #2]	@ movhi
 452:../STM32_ETH_Driver/src/stm32_eth.c ****   uint32_t offset = 0;
 737              		.loc 1 452 0
 738 000c 0023     		movs	r3, #0
 739 000e FB60     		str	r3, [r7, #12]
 453:../STM32_ETH_Driver/src/stm32_eth.c ****     
 454:../STM32_ETH_Driver/src/stm32_eth.c ****   /* Check if the descriptor is owned by the ETHERNET DMA (when set) or CPU (when reset) */
 455:../STM32_ETH_Driver/src/stm32_eth.c ****   if((DMATxDescToSet->Status & ETH_DMATxDesc_OWN) != (uint32_t)RESET)
 740              		.loc 1 455 0
 741 0010 3C4B     		ldr	r3, .L22
 742 0012 1B68     		ldr	r3, [r3]
 743 0014 1B68     		ldr	r3, [r3]
 744 0016 002B     		cmp	r3, #0
 745 0018 01DA     		bge	.L14
 456:../STM32_ETH_Driver/src/stm32_eth.c ****   {
 457:../STM32_ETH_Driver/src/stm32_eth.c ****     /* Return ERROR: OWN bit set */
 458:../STM32_ETH_Driver/src/stm32_eth.c ****     return ETH_ERROR;
 746              		.loc 1 458 0
 747 001a 0023     		movs	r3, #0
 748 001c 6CE0     		b	.L15
 749              	.L14:
 459:../STM32_ETH_Driver/src/stm32_eth.c ****   }
 460:../STM32_ETH_Driver/src/stm32_eth.c ****   
 461:../STM32_ETH_Driver/src/stm32_eth.c ****   /* Copy the frame to be sent into memory pointed by the current ETHERNET DMA Tx descriptor */    
 462:../STM32_ETH_Driver/src/stm32_eth.c ****   for(offset=0; offset<FrameLength; offset++)       
 750              		.loc 1 462 0
 751 001e 0023     		movs	r3, #0
 752 0020 FB60     		str	r3, [r7, #12]
 753 0022 0DE0     		b	.L16
 754              	.L17:
 463:../STM32_ETH_Driver/src/stm32_eth.c ****   {
 464:../STM32_ETH_Driver/src/stm32_eth.c ****     (*(__IO uint8_t *)((DMATxDescToSet->Buffer1Addr) + offset)) = (*(ppkt + offset));
 755              		.loc 1 464 0 discriminator 3
 756 0024 374B     		ldr	r3, .L22
 757 0026 1B68     		ldr	r3, [r3]
 758 0028 9A68     		ldr	r2, [r3, #8]
 759 002a FB68     		ldr	r3, [r7, #12]
 760 002c 1344     		add	r3, r3, r2
 761 002e 1946     		mov	r1, r3
 762 0030 7A68     		ldr	r2, [r7, #4]
 763 0032 FB68     		ldr	r3, [r7, #12]
 764 0034 1344     		add	r3, r3, r2
 765 0036 1B78     		ldrb	r3, [r3]	@ zero_extendqisi2
 766 0038 0B70     		strb	r3, [r1]
 462:../STM32_ETH_Driver/src/stm32_eth.c ****   {
 767              		.loc 1 462 0 discriminator 3
 768 003a FB68     		ldr	r3, [r7, #12]
 769 003c 0133     		adds	r3, r3, #1
 770 003e FB60     		str	r3, [r7, #12]
 771              	.L16:
 462:../STM32_ETH_Driver/src/stm32_eth.c ****   {
 772              		.loc 1 462 0 is_stmt 0 discriminator 1
 773 0040 7A88     		ldrh	r2, [r7, #2]
 774 0042 FB68     		ldr	r3, [r7, #12]
 775 0044 9A42     		cmp	r2, r3
 776 0046 EDD8     		bhi	.L17
 465:../STM32_ETH_Driver/src/stm32_eth.c ****   }
 466:../STM32_ETH_Driver/src/stm32_eth.c ****         
 467:../STM32_ETH_Driver/src/stm32_eth.c ****   /* Setting the Frame Length: bits[12:0] */
 468:../STM32_ETH_Driver/src/stm32_eth.c ****   DMATxDescToSet->ControlBufferSize = (FrameLength & ETH_DMATxDesc_TBS1);
 777              		.loc 1 468 0 is_stmt 1
 778 0048 2E4B     		ldr	r3, .L22
 779 004a 1B68     		ldr	r3, [r3]
 780 004c 7A88     		ldrh	r2, [r7, #2]
 781 004e C2F30C02 		ubfx	r2, r2, #0, #13
 782 0052 5A60     		str	r2, [r3, #4]
 469:../STM32_ETH_Driver/src/stm32_eth.c ****   /* Setting the last segment and first segment bits (in this case a frame is transmitted in one de
 470:../STM32_ETH_Driver/src/stm32_eth.c ****   DMATxDescToSet->Status |= ETH_DMATxDesc_LS | ETH_DMATxDesc_FS;
 783              		.loc 1 470 0
 784 0054 2B4B     		ldr	r3, .L22
 785 0056 1B68     		ldr	r3, [r3]
 786 0058 2A4A     		ldr	r2, .L22
 787 005a 1268     		ldr	r2, [r2]
 788 005c 1268     		ldr	r2, [r2]
 789 005e 42F04052 		orr	r2, r2, #805306368
 790 0062 1A60     		str	r2, [r3]
 471:../STM32_ETH_Driver/src/stm32_eth.c ****   /* Set Own bit of the Tx descriptor Status: gives the buffer back to ETHERNET DMA */
 472:../STM32_ETH_Driver/src/stm32_eth.c ****   DMATxDescToSet->Status |= ETH_DMATxDesc_OWN;
 791              		.loc 1 472 0
 792 0064 274B     		ldr	r3, .L22
 793 0066 1B68     		ldr	r3, [r3]
 794 0068 264A     		ldr	r2, .L22
 795 006a 1268     		ldr	r2, [r2]
 796 006c 1268     		ldr	r2, [r2]
 797 006e 42F00042 		orr	r2, r2, #-2147483648
 798 0072 1A60     		str	r2, [r3]
 473:../STM32_ETH_Driver/src/stm32_eth.c ****   /* When Tx Buffer unavailable flag is set: clear it and resume transmission */
 474:../STM32_ETH_Driver/src/stm32_eth.c ****   if ((ETH->DMASR & ETH_DMASR_TBUS) != (uint32_t)RESET)
 799              		.loc 1 474 0
 800 0074 244B     		ldr	r3, .L22+4
 801 0076 03F58053 		add	r3, r3, #4096
 802 007a 1433     		adds	r3, r3, #20
 803 007c 1B68     		ldr	r3, [r3]
 804 007e 03F00403 		and	r3, r3, #4
 805 0082 002B     		cmp	r3, #0
 806 0084 0BD0     		beq	.L18
 475:../STM32_ETH_Driver/src/stm32_eth.c ****   {
 476:../STM32_ETH_Driver/src/stm32_eth.c ****     /* Clear TBUS ETHERNET DMA flag */
 477:../STM32_ETH_Driver/src/stm32_eth.c ****     ETH->DMASR = ETH_DMASR_TBUS;
 807              		.loc 1 477 0
 808 0086 204B     		ldr	r3, .L22+4
 809 0088 03F58053 		add	r3, r3, #4096
 810 008c 1433     		adds	r3, r3, #20
 811 008e 0422     		movs	r2, #4
 812 0090 1A60     		str	r2, [r3]
 478:../STM32_ETH_Driver/src/stm32_eth.c ****     /* Resume DMA transmission*/
 479:../STM32_ETH_Driver/src/stm32_eth.c ****     ETH->DMATPDR = 0;
 813              		.loc 1 479 0
 814 0092 1D4B     		ldr	r3, .L22+4
 815 0094 03F58053 		add	r3, r3, #4096
 816 0098 0433     		adds	r3, r3, #4
 817 009a 0022     		movs	r2, #0
 818 009c 1A60     		str	r2, [r3]
 819              	.L18:
 480:../STM32_ETH_Driver/src/stm32_eth.c ****   }
 481:../STM32_ETH_Driver/src/stm32_eth.c ****   
 482:../STM32_ETH_Driver/src/stm32_eth.c ****   /* Update the ETHERNET DMA global Tx descriptor with next Tx decriptor */  
 483:../STM32_ETH_Driver/src/stm32_eth.c ****   /* Chained Mode */
 484:../STM32_ETH_Driver/src/stm32_eth.c ****   if((DMATxDescToSet->Status & ETH_DMATxDesc_TCH) != (uint32_t)RESET)
 820              		.loc 1 484 0
 821 009e 194B     		ldr	r3, .L22
 822 00a0 1B68     		ldr	r3, [r3]
 823 00a2 1B68     		ldr	r3, [r3]
 824 00a4 03F48013 		and	r3, r3, #1048576
 825 00a8 002B     		cmp	r3, #0
 826 00aa 06D0     		beq	.L19
 485:../STM32_ETH_Driver/src/stm32_eth.c ****   {     
 486:../STM32_ETH_Driver/src/stm32_eth.c ****     /* Selects the next DMA Tx descriptor list for next buffer to send */ 
 487:../STM32_ETH_Driver/src/stm32_eth.c ****     DMATxDescToSet = (ETH_DMADESCTypeDef*) (DMATxDescToSet->Buffer2NextDescAddr);    
 827              		.loc 1 487 0
 828 00ac 154B     		ldr	r3, .L22
 829 00ae 1B68     		ldr	r3, [r3]
 830 00b0 DB68     		ldr	r3, [r3, #12]
 831 00b2 1A46     		mov	r2, r3
 832 00b4 134B     		ldr	r3, .L22
 833 00b6 1A60     		str	r2, [r3]
 834 00b8 1DE0     		b	.L20
 835              	.L19:
 488:../STM32_ETH_Driver/src/stm32_eth.c ****   }
 489:../STM32_ETH_Driver/src/stm32_eth.c ****   else /* Ring Mode */
 490:../STM32_ETH_Driver/src/stm32_eth.c ****   {  
 491:../STM32_ETH_Driver/src/stm32_eth.c ****     if((DMATxDescToSet->Status & ETH_DMATxDesc_TER) != (uint32_t)RESET)
 836              		.loc 1 491 0
 837 00ba 124B     		ldr	r3, .L22
 838 00bc 1B68     		ldr	r3, [r3]
 839 00be 1B68     		ldr	r3, [r3]
 840 00c0 03F40013 		and	r3, r3, #2097152
 841 00c4 002B     		cmp	r3, #0
 842 00c6 08D0     		beq	.L21
 492:../STM32_ETH_Driver/src/stm32_eth.c ****     {
 493:../STM32_ETH_Driver/src/stm32_eth.c ****       /* Selects the first DMA Tx descriptor for next buffer to send: last Tx descriptor was used *
 494:../STM32_ETH_Driver/src/stm32_eth.c ****       DMATxDescToSet = (ETH_DMADESCTypeDef*) (ETH->DMATDLAR);      
 843              		.loc 1 494 0
 844 00c8 0F4B     		ldr	r3, .L22+4
 845 00ca 03F58053 		add	r3, r3, #4096
 846 00ce 1033     		adds	r3, r3, #16
 847 00d0 1B68     		ldr	r3, [r3]
 848 00d2 1A46     		mov	r2, r3
 849 00d4 0B4B     		ldr	r3, .L22
 850 00d6 1A60     		str	r2, [r3]
 851 00d8 0DE0     		b	.L20
 852              	.L21:
 495:../STM32_ETH_Driver/src/stm32_eth.c ****     }
 496:../STM32_ETH_Driver/src/stm32_eth.c ****     else
 497:../STM32_ETH_Driver/src/stm32_eth.c ****     {  
 498:../STM32_ETH_Driver/src/stm32_eth.c ****       /* Selects the next DMA Tx descriptor list for next buffer to send */
 499:../STM32_ETH_Driver/src/stm32_eth.c ****       DMATxDescToSet = (ETH_DMADESCTypeDef*) ((uint32_t)DMATxDescToSet + 0x10 + ((ETH->DMABMR & ETH
 853              		.loc 1 499 0
 854 00da 0B4B     		ldr	r3, .L22+4
 855 00dc 03F58053 		add	r3, r3, #4096
 856 00e0 1B68     		ldr	r3, [r3]
 857 00e2 03F07C03 		and	r3, r3, #124
 858 00e6 9B08     		lsrs	r3, r3, #2
 859 00e8 064A     		ldr	r2, .L22
 860 00ea 1268     		ldr	r2, [r2]
 861 00ec 1344     		add	r3, r3, r2
 862 00ee 1033     		adds	r3, r3, #16
 863 00f0 1A46     		mov	r2, r3
 864 00f2 044B     		ldr	r3, .L22
 865 00f4 1A60     		str	r2, [r3]
 866              	.L20:
 500:../STM32_ETH_Driver/src/stm32_eth.c ****     }
 501:../STM32_ETH_Driver/src/stm32_eth.c ****   }
 502:../STM32_ETH_Driver/src/stm32_eth.c ****   /* Return SUCCESS */
 503:../STM32_ETH_Driver/src/stm32_eth.c ****   return ETH_SUCCESS;   
 867              		.loc 1 503 0
 868 00f6 0123     		movs	r3, #1
 869              	.L15:
 504:../STM32_ETH_Driver/src/stm32_eth.c **** }
 870              		.loc 1 504 0
 871 00f8 1846     		mov	r0, r3
 872 00fa 1437     		adds	r7, r7, #20
 873              		.cfi_def_cfa_offset 4
 874 00fc BD46     		mov	sp, r7
 875              		.cfi_def_cfa_register 13
 876              		@ sp needed
 877 00fe 5DF8047B 		ldr	r7, [sp], #4
 878              		.cfi_restore 7
 879              		.cfi_def_cfa_offset 0
 880 0102 7047     		bx	lr
 881              	.L23:
 882              		.align	2
 883              	.L22:
 884 0104 00000000 		.word	DMATxDescToSet
 885 0108 00800240 		.word	1073905664
 886              		.cfi_endproc
 887              	.LFE33:
 889              		.section	.text.ETH_HandleRxPkt,"ax",%progbits
 890              		.align	2
 891              		.global	ETH_HandleRxPkt
 892              		.thumb
 893              		.thumb_func
 895              	ETH_HandleRxPkt:
 896              	.LFB34:
 505:../STM32_ETH_Driver/src/stm32_eth.c **** 
 506:../STM32_ETH_Driver/src/stm32_eth.c **** /**
 507:../STM32_ETH_Driver/src/stm32_eth.c ****   * @brief  Receives a packet and copies it to memory pointed by ppkt.
 508:../STM32_ETH_Driver/src/stm32_eth.c ****   * @param  ppkt: pointer to the application packet receive buffer.
 509:../STM32_ETH_Driver/src/stm32_eth.c ****   * @retval ETH_ERROR: if there is error in reception
 510:../STM32_ETH_Driver/src/stm32_eth.c ****   *         framelength: received packet size if packet reception is correct
 511:../STM32_ETH_Driver/src/stm32_eth.c ****   */
 512:../STM32_ETH_Driver/src/stm32_eth.c **** uint32_t ETH_HandleRxPkt(uint8_t *ppkt)
 513:../STM32_ETH_Driver/src/stm32_eth.c **** { 
 897              		.loc 1 513 0
 898              		.cfi_startproc
 899              		@ args = 0, pretend = 0, frame = 16
 900              		@ frame_needed = 1, uses_anonymous_args = 0
 901              		@ link register save eliminated.
 902 0000 80B4     		push	{r7}
 903              		.cfi_def_cfa_offset 4
 904              		.cfi_offset 7, -4
 905 0002 85B0     		sub	sp, sp, #20
 906              		.cfi_def_cfa_offset 24
 907 0004 00AF     		add	r7, sp, #0
 908              		.cfi_def_cfa_register 7
 909 0006 7860     		str	r0, [r7, #4]
 514:../STM32_ETH_Driver/src/stm32_eth.c ****   uint32_t offset = 0, framelength = 0;
 910              		.loc 1 514 0
 911 0008 0023     		movs	r3, #0
 912 000a FB60     		str	r3, [r7, #12]
 913 000c 0023     		movs	r3, #0
 914 000e BB60     		str	r3, [r7, #8]
 515:../STM32_ETH_Driver/src/stm32_eth.c ****   /* Check if the descriptor is owned by the ETHERNET DMA (when set) or CPU (when reset) */
 516:../STM32_ETH_Driver/src/stm32_eth.c ****   if((DMARxDescToGet->Status & ETH_DMARxDesc_OWN) != (uint32_t)RESET)
 915              		.loc 1 516 0
 916 0010 444B     		ldr	r3, .L35
 917 0012 1B68     		ldr	r3, [r3]
 918 0014 1B68     		ldr	r3, [r3]
 919 0016 002B     		cmp	r3, #0
 920 0018 01DA     		bge	.L25
 517:../STM32_ETH_Driver/src/stm32_eth.c ****   {
 518:../STM32_ETH_Driver/src/stm32_eth.c ****     /* Return error: OWN bit set */
 519:../STM32_ETH_Driver/src/stm32_eth.c ****     return ETH_ERROR; 
 921              		.loc 1 519 0
 922 001a 0023     		movs	r3, #0
 923 001c 7BE0     		b	.L26
 924              	.L25:
 520:../STM32_ETH_Driver/src/stm32_eth.c ****   }
 521:../STM32_ETH_Driver/src/stm32_eth.c ****   
 522:../STM32_ETH_Driver/src/stm32_eth.c ****   if(((DMARxDescToGet->Status & ETH_DMARxDesc_ES) == (uint32_t)RESET) && 
 925              		.loc 1 522 0
 926 001e 414B     		ldr	r3, .L35
 927 0020 1B68     		ldr	r3, [r3]
 928 0022 1B68     		ldr	r3, [r3]
 929 0024 03F40043 		and	r3, r3, #32768
 930 0028 002B     		cmp	r3, #0
 931 002a 2BD1     		bne	.L27
 523:../STM32_ETH_Driver/src/stm32_eth.c ****      ((DMARxDescToGet->Status & ETH_DMARxDesc_LS) != (uint32_t)RESET) &&  
 932              		.loc 1 523 0 discriminator 1
 933 002c 3D4B     		ldr	r3, .L35
 934 002e 1B68     		ldr	r3, [r3]
 935 0030 1B68     		ldr	r3, [r3]
 936 0032 03F48073 		and	r3, r3, #256
 522:../STM32_ETH_Driver/src/stm32_eth.c ****      ((DMARxDescToGet->Status & ETH_DMARxDesc_LS) != (uint32_t)RESET) &&  
 937              		.loc 1 522 0 discriminator 1
 938 0036 002B     		cmp	r3, #0
 939 0038 24D0     		beq	.L27
 524:../STM32_ETH_Driver/src/stm32_eth.c ****      ((DMARxDescToGet->Status & ETH_DMARxDesc_FS) != (uint32_t)RESET))  
 940              		.loc 1 524 0
 941 003a 3A4B     		ldr	r3, .L35
 942 003c 1B68     		ldr	r3, [r3]
 943 003e 1B68     		ldr	r3, [r3]
 944 0040 03F40073 		and	r3, r3, #512
 523:../STM32_ETH_Driver/src/stm32_eth.c ****      ((DMARxDescToGet->Status & ETH_DMARxDesc_LS) != (uint32_t)RESET) &&  
 945              		.loc 1 523 0
 946 0044 002B     		cmp	r3, #0
 947 0046 1DD0     		beq	.L27
 525:../STM32_ETH_Driver/src/stm32_eth.c ****   {      
 526:../STM32_ETH_Driver/src/stm32_eth.c ****     /* Get the Frame Length of the received packet: substruct 4 bytes of the CRC */
 527:../STM32_ETH_Driver/src/stm32_eth.c ****     framelength = ((DMARxDescToGet->Status & ETH_DMARxDesc_FL) >> ETH_DMARXDESC_FRAME_LENGTHSHIFT) 
 948              		.loc 1 527 0
 949 0048 364B     		ldr	r3, .L35
 950 004a 1B68     		ldr	r3, [r3]
 951 004c 1A68     		ldr	r2, [r3]
 952 004e 364B     		ldr	r3, .L35+4
 953 0050 1340     		ands	r3, r3, r2
 954 0052 1B0C     		lsrs	r3, r3, #16
 955 0054 043B     		subs	r3, r3, #4
 956 0056 BB60     		str	r3, [r7, #8]
 528:../STM32_ETH_Driver/src/stm32_eth.c ****     /* Copy the received frame into buffer from memory pointed by the current ETHERNET DMA Rx descr
 529:../STM32_ETH_Driver/src/stm32_eth.c ****     for(offset=0; offset<framelength; offset++)       
 957              		.loc 1 529 0
 958 0058 0023     		movs	r3, #0
 959 005a FB60     		str	r3, [r7, #12]
 960 005c 0DE0     		b	.L28
 961              	.L29:
 530:../STM32_ETH_Driver/src/stm32_eth.c ****     {
 531:../STM32_ETH_Driver/src/stm32_eth.c ****       (*(ppkt + offset)) = (*(__IO uint8_t *)((DMARxDescToGet->Buffer1Addr) + offset));
 962              		.loc 1 531 0 discriminator 3
 963 005e 7A68     		ldr	r2, [r7, #4]
 964 0060 FB68     		ldr	r3, [r7, #12]
 965 0062 1344     		add	r3, r3, r2
 966 0064 2F4A     		ldr	r2, .L35
 967 0066 1268     		ldr	r2, [r2]
 968 0068 9168     		ldr	r1, [r2, #8]
 969 006a FA68     		ldr	r2, [r7, #12]
 970 006c 0A44     		add	r2, r2, r1
 971 006e 1278     		ldrb	r2, [r2]
 972 0070 D2B2     		uxtb	r2, r2
 973 0072 1A70     		strb	r2, [r3]
 529:../STM32_ETH_Driver/src/stm32_eth.c ****     {
 974              		.loc 1 529 0 discriminator 3
 975 0074 FB68     		ldr	r3, [r7, #12]
 976 0076 0133     		adds	r3, r3, #1
 977 0078 FB60     		str	r3, [r7, #12]
 978              	.L28:
 529:../STM32_ETH_Driver/src/stm32_eth.c ****     {
 979              		.loc 1 529 0 is_stmt 0 discriminator 1
 980 007a FA68     		ldr	r2, [r7, #12]
 981 007c BB68     		ldr	r3, [r7, #8]
 982 007e 9A42     		cmp	r2, r3
 983 0080 EDD3     		bcc	.L29
 522:../STM32_ETH_Driver/src/stm32_eth.c ****      ((DMARxDescToGet->Status & ETH_DMARxDesc_LS) != (uint32_t)RESET) &&  
 984              		.loc 1 522 0 is_stmt 1
 985 0082 01E0     		b	.L30
 986              	.L27:
 532:../STM32_ETH_Driver/src/stm32_eth.c ****     }
 533:../STM32_ETH_Driver/src/stm32_eth.c ****   }
 534:../STM32_ETH_Driver/src/stm32_eth.c ****   else
 535:../STM32_ETH_Driver/src/stm32_eth.c ****   {
 536:../STM32_ETH_Driver/src/stm32_eth.c ****     /* Return ERROR */
 537:../STM32_ETH_Driver/src/stm32_eth.c ****     framelength = ETH_ERROR;
 987              		.loc 1 537 0
 988 0084 0023     		movs	r3, #0
 989 0086 BB60     		str	r3, [r7, #8]
 990              	.L30:
 538:../STM32_ETH_Driver/src/stm32_eth.c ****   }
 539:../STM32_ETH_Driver/src/stm32_eth.c ****   /* Set Own bit of the Rx descriptor Status: gives the buffer back to ETHERNET DMA */
 540:../STM32_ETH_Driver/src/stm32_eth.c ****   DMARxDescToGet->Status = ETH_DMARxDesc_OWN; 
 991              		.loc 1 540 0
 992 0088 264B     		ldr	r3, .L35
 993 008a 1B68     		ldr	r3, [r3]
 994 008c 4FF00042 		mov	r2, #-2147483648
 995 0090 1A60     		str	r2, [r3]
 541:../STM32_ETH_Driver/src/stm32_eth.c ****  
 542:../STM32_ETH_Driver/src/stm32_eth.c ****   /* When Rx Buffer unavailable flag is set: clear it and resume reception */
 543:../STM32_ETH_Driver/src/stm32_eth.c ****   if ((ETH->DMASR & ETH_DMASR_RBUS) != (uint32_t)RESET)  
 996              		.loc 1 543 0
 997 0092 264B     		ldr	r3, .L35+8
 998 0094 03F58053 		add	r3, r3, #4096
 999 0098 1433     		adds	r3, r3, #20
 1000 009a 1B68     		ldr	r3, [r3]
 1001 009c 03F08003 		and	r3, r3, #128
 1002 00a0 002B     		cmp	r3, #0
 1003 00a2 0BD0     		beq	.L31
 544:../STM32_ETH_Driver/src/stm32_eth.c ****   {
 545:../STM32_ETH_Driver/src/stm32_eth.c ****     /* Clear RBUS ETHERNET DMA flag */
 546:../STM32_ETH_Driver/src/stm32_eth.c ****     ETH->DMASR = ETH_DMASR_RBUS;
 1004              		.loc 1 546 0
 1005 00a4 214B     		ldr	r3, .L35+8
 1006 00a6 03F58053 		add	r3, r3, #4096
 1007 00aa 1433     		adds	r3, r3, #20
 1008 00ac 8022     		movs	r2, #128
 1009 00ae 1A60     		str	r2, [r3]
 547:../STM32_ETH_Driver/src/stm32_eth.c ****     /* Resume DMA reception */
 548:../STM32_ETH_Driver/src/stm32_eth.c ****     ETH->DMARPDR = 0;
 1010              		.loc 1 548 0
 1011 00b0 1E4B     		ldr	r3, .L35+8
 1012 00b2 03F58053 		add	r3, r3, #4096
 1013 00b6 0833     		adds	r3, r3, #8
 1014 00b8 0022     		movs	r2, #0
 1015 00ba 1A60     		str	r2, [r3]
 1016              	.L31:
 549:../STM32_ETH_Driver/src/stm32_eth.c ****   }
 550:../STM32_ETH_Driver/src/stm32_eth.c ****   
 551:../STM32_ETH_Driver/src/stm32_eth.c ****   /* Update the ETHERNET DMA global Rx descriptor with next Rx decriptor */      
 552:../STM32_ETH_Driver/src/stm32_eth.c ****   /* Chained Mode */
 553:../STM32_ETH_Driver/src/stm32_eth.c ****   if((DMARxDescToGet->ControlBufferSize & ETH_DMARxDesc_RCH) != (uint32_t)RESET)
 1017              		.loc 1 553 0
 1018 00bc 194B     		ldr	r3, .L35
 1019 00be 1B68     		ldr	r3, [r3]
 1020 00c0 5B68     		ldr	r3, [r3, #4]
 1021 00c2 03F48043 		and	r3, r3, #16384
 1022 00c6 002B     		cmp	r3, #0
 1023 00c8 06D0     		beq	.L32
 554:../STM32_ETH_Driver/src/stm32_eth.c ****   {     
 555:../STM32_ETH_Driver/src/stm32_eth.c ****     /* Selects the next DMA Rx descriptor list for next buffer to read */ 
 556:../STM32_ETH_Driver/src/stm32_eth.c ****     DMARxDescToGet = (ETH_DMADESCTypeDef*) (DMARxDescToGet->Buffer2NextDescAddr);    
 1024              		.loc 1 556 0
 1025 00ca 164B     		ldr	r3, .L35
 1026 00cc 1B68     		ldr	r3, [r3]
 1027 00ce DB68     		ldr	r3, [r3, #12]
 1028 00d0 1A46     		mov	r2, r3
 1029 00d2 144B     		ldr	r3, .L35
 1030 00d4 1A60     		str	r2, [r3]
 1031 00d6 1DE0     		b	.L33
 1032              	.L32:
 557:../STM32_ETH_Driver/src/stm32_eth.c ****   }
 558:../STM32_ETH_Driver/src/stm32_eth.c ****   else /* Ring Mode */
 559:../STM32_ETH_Driver/src/stm32_eth.c ****   {   
 560:../STM32_ETH_Driver/src/stm32_eth.c ****     if((DMARxDescToGet->ControlBufferSize & ETH_DMARxDesc_RER) != (uint32_t)RESET)
 1033              		.loc 1 560 0
 1034 00d8 124B     		ldr	r3, .L35
 1035 00da 1B68     		ldr	r3, [r3]
 1036 00dc 5B68     		ldr	r3, [r3, #4]
 1037 00de 03F40043 		and	r3, r3, #32768
 1038 00e2 002B     		cmp	r3, #0
 1039 00e4 08D0     		beq	.L34
 561:../STM32_ETH_Driver/src/stm32_eth.c ****     {
 562:../STM32_ETH_Driver/src/stm32_eth.c ****       /* Selects the first DMA Rx descriptor for next buffer to read: last Rx descriptor was used *
 563:../STM32_ETH_Driver/src/stm32_eth.c ****       DMARxDescToGet = (ETH_DMADESCTypeDef*) (ETH->DMARDLAR);      
 1040              		.loc 1 563 0
 1041 00e6 114B     		ldr	r3, .L35+8
 1042 00e8 03F58053 		add	r3, r3, #4096
 1043 00ec 0C33     		adds	r3, r3, #12
 1044 00ee 1B68     		ldr	r3, [r3]
 1045 00f0 1A46     		mov	r2, r3
 1046 00f2 0C4B     		ldr	r3, .L35
 1047 00f4 1A60     		str	r2, [r3]
 1048 00f6 0DE0     		b	.L33
 1049              	.L34:
 564:../STM32_ETH_Driver/src/stm32_eth.c ****     }
 565:../STM32_ETH_Driver/src/stm32_eth.c ****     else
 566:../STM32_ETH_Driver/src/stm32_eth.c ****     { 
 567:../STM32_ETH_Driver/src/stm32_eth.c ****       /* Selects the next DMA Rx descriptor list for next buffer to read */
 568:../STM32_ETH_Driver/src/stm32_eth.c ****       DMARxDescToGet = (ETH_DMADESCTypeDef*) ((uint32_t)DMARxDescToGet + 0x10 + ((ETH->DMABMR & ETH
 1050              		.loc 1 568 0
 1051 00f8 0C4B     		ldr	r3, .L35+8
 1052 00fa 03F58053 		add	r3, r3, #4096
 1053 00fe 1B68     		ldr	r3, [r3]
 1054 0100 03F07C03 		and	r3, r3, #124
 1055 0104 9B08     		lsrs	r3, r3, #2
 1056 0106 074A     		ldr	r2, .L35
 1057 0108 1268     		ldr	r2, [r2]
 1058 010a 1344     		add	r3, r3, r2
 1059 010c 1033     		adds	r3, r3, #16
 1060 010e 1A46     		mov	r2, r3
 1061 0110 044B     		ldr	r3, .L35
 1062 0112 1A60     		str	r2, [r3]
 1063              	.L33:
 569:../STM32_ETH_Driver/src/stm32_eth.c ****     }
 570:../STM32_ETH_Driver/src/stm32_eth.c ****   }
 571:../STM32_ETH_Driver/src/stm32_eth.c ****   
 572:../STM32_ETH_Driver/src/stm32_eth.c ****   /* Return Frame Length/ERROR */
 573:../STM32_ETH_Driver/src/stm32_eth.c ****   return (framelength);  
 1064              		.loc 1 573 0
 1065 0114 BB68     		ldr	r3, [r7, #8]
 1066              	.L26:
 574:../STM32_ETH_Driver/src/stm32_eth.c **** }
 1067              		.loc 1 574 0
 1068 0116 1846     		mov	r0, r3
 1069 0118 1437     		adds	r7, r7, #20
 1070              		.cfi_def_cfa_offset 4
 1071 011a BD46     		mov	sp, r7
 1072              		.cfi_def_cfa_register 13
 1073              		@ sp needed
 1074 011c 5DF8047B 		ldr	r7, [sp], #4
 1075              		.cfi_restore 7
 1076              		.cfi_def_cfa_offset 0
 1077 0120 7047     		bx	lr
 1078              	.L36:
 1079 0122 00BF     		.align	2
 1080              	.L35:
 1081 0124 00000000 		.word	DMARxDescToGet
 1082 0128 0000FF3F 		.word	1073676288
 1083 012c 00800240 		.word	1073905664
 1084              		.cfi_endproc
 1085              	.LFE34:
 1087              		.section	.text.ETH_GetRxPktSize,"ax",%progbits
 1088              		.align	2
 1089              		.global	ETH_GetRxPktSize
 1090              		.thumb
 1091              		.thumb_func
 1093              	ETH_GetRxPktSize:
 1094              	.LFB35:
 575:../STM32_ETH_Driver/src/stm32_eth.c **** 
 576:../STM32_ETH_Driver/src/stm32_eth.c **** /**
 577:../STM32_ETH_Driver/src/stm32_eth.c ****   * @brief  Get the size of received the received packet.
 578:../STM32_ETH_Driver/src/stm32_eth.c ****   * @param  None
 579:../STM32_ETH_Driver/src/stm32_eth.c ****   * @retval framelength: received packet size 
 580:../STM32_ETH_Driver/src/stm32_eth.c ****   */
 581:../STM32_ETH_Driver/src/stm32_eth.c **** uint32_t ETH_GetRxPktSize(void)
 582:../STM32_ETH_Driver/src/stm32_eth.c **** {
 1095              		.loc 1 582 0
 1096              		.cfi_startproc
 1097              		@ args = 0, pretend = 0, frame = 8
 1098              		@ frame_needed = 1, uses_anonymous_args = 0
 1099 0000 80B5     		push	{r7, lr}
 1100              		.cfi_def_cfa_offset 8
 1101              		.cfi_offset 7, -8
 1102              		.cfi_offset 14, -4
 1103 0002 82B0     		sub	sp, sp, #8
 1104              		.cfi_def_cfa_offset 16
 1105 0004 00AF     		add	r7, sp, #0
 1106              		.cfi_def_cfa_register 7
 583:../STM32_ETH_Driver/src/stm32_eth.c ****   uint32_t frameLength = 0;
 1107              		.loc 1 583 0
 1108 0006 0023     		movs	r3, #0
 1109 0008 7B60     		str	r3, [r7, #4]
 584:../STM32_ETH_Driver/src/stm32_eth.c ****   if(((DMARxDescToGet->Status & ETH_DMARxDesc_OWN) == (uint32_t)RESET) &&
 1110              		.loc 1 584 0
 1111 000a 124B     		ldr	r3, .L40
 1112 000c 1B68     		ldr	r3, [r3]
 1113 000e 1B68     		ldr	r3, [r3]
 1114 0010 002B     		cmp	r3, #0
 1115 0012 1ADB     		blt	.L38
 585:../STM32_ETH_Driver/src/stm32_eth.c ****      ((DMARxDescToGet->Status & ETH_DMARxDesc_ES) == (uint32_t)RESET) &&
 1116              		.loc 1 585 0 discriminator 1
 1117 0014 0F4B     		ldr	r3, .L40
 1118 0016 1B68     		ldr	r3, [r3]
 1119 0018 1B68     		ldr	r3, [r3]
 1120 001a 03F40043 		and	r3, r3, #32768
 584:../STM32_ETH_Driver/src/stm32_eth.c ****   if(((DMARxDescToGet->Status & ETH_DMARxDesc_OWN) == (uint32_t)RESET) &&
 1121              		.loc 1 584 0 discriminator 1
 1122 001e 002B     		cmp	r3, #0
 1123 0020 13D1     		bne	.L38
 586:../STM32_ETH_Driver/src/stm32_eth.c ****      ((DMARxDescToGet->Status & ETH_DMARxDesc_LS) != (uint32_t)RESET) &&
 1124              		.loc 1 586 0
 1125 0022 0C4B     		ldr	r3, .L40
 1126 0024 1B68     		ldr	r3, [r3]
 1127 0026 1B68     		ldr	r3, [r3]
 1128 0028 03F48073 		and	r3, r3, #256
 585:../STM32_ETH_Driver/src/stm32_eth.c ****      ((DMARxDescToGet->Status & ETH_DMARxDesc_ES) == (uint32_t)RESET) &&
 1129              		.loc 1 585 0
 1130 002c 002B     		cmp	r3, #0
 1131 002e 0CD0     		beq	.L38
 587:../STM32_ETH_Driver/src/stm32_eth.c ****      ((DMARxDescToGet->Status & ETH_DMARxDesc_FS) != (uint32_t)RESET))
 1132              		.loc 1 587 0
 1133 0030 084B     		ldr	r3, .L40
 1134 0032 1B68     		ldr	r3, [r3]
 1135 0034 1B68     		ldr	r3, [r3]
 1136 0036 03F40073 		and	r3, r3, #512
 586:../STM32_ETH_Driver/src/stm32_eth.c ****      ((DMARxDescToGet->Status & ETH_DMARxDesc_LS) != (uint32_t)RESET) &&
 1137              		.loc 1 586 0
 1138 003a 002B     		cmp	r3, #0
 1139 003c 05D0     		beq	.L38
 588:../STM32_ETH_Driver/src/stm32_eth.c ****   {
 589:../STM32_ETH_Driver/src/stm32_eth.c ****     /* Get the size of the packet: including 4 bytes of the CRC */
 590:../STM32_ETH_Driver/src/stm32_eth.c ****     frameLength = ETH_GetDMARxDescFrameLength(DMARxDescToGet);
 1140              		.loc 1 590 0
 1141 003e 054B     		ldr	r3, .L40
 1142 0040 1B68     		ldr	r3, [r3]
 1143 0042 1846     		mov	r0, r3
 1144 0044 FFF7FEFF 		bl	ETH_GetDMARxDescFrameLength
 1145 0048 7860     		str	r0, [r7, #4]
 1146              	.L38:
 591:../STM32_ETH_Driver/src/stm32_eth.c ****   }
 592:../STM32_ETH_Driver/src/stm32_eth.c ****  
 593:../STM32_ETH_Driver/src/stm32_eth.c ****  /* Return Frame Length */ 
 594:../STM32_ETH_Driver/src/stm32_eth.c ****  return frameLength;
 1147              		.loc 1 594 0
 1148 004a 7B68     		ldr	r3, [r7, #4]
 595:../STM32_ETH_Driver/src/stm32_eth.c **** }
 1149              		.loc 1 595 0
 1150 004c 1846     		mov	r0, r3
 1151 004e 0837     		adds	r7, r7, #8
 1152              		.cfi_def_cfa_offset 8
 1153 0050 BD46     		mov	sp, r7
 1154              		.cfi_def_cfa_register 13
 1155              		@ sp needed
 1156 0052 80BD     		pop	{r7, pc}
 1157              	.L41:
 1158              		.align	2
 1159              	.L40:
 1160 0054 00000000 		.word	DMARxDescToGet
 1161              		.cfi_endproc
 1162              	.LFE35:
 1164              		.section	.text.ETH_DropRxPkt,"ax",%progbits
 1165              		.align	2
 1166              		.global	ETH_DropRxPkt
 1167              		.thumb
 1168              		.thumb_func
 1170              	ETH_DropRxPkt:
 1171              	.LFB36:
 596:../STM32_ETH_Driver/src/stm32_eth.c **** 
 597:../STM32_ETH_Driver/src/stm32_eth.c **** /**
 598:../STM32_ETH_Driver/src/stm32_eth.c ****   * @brief  Drop a Received packet (too small packet, etc...)
 599:../STM32_ETH_Driver/src/stm32_eth.c ****   * @param  None
 600:../STM32_ETH_Driver/src/stm32_eth.c ****   * @retval None
 601:../STM32_ETH_Driver/src/stm32_eth.c ****   */
 602:../STM32_ETH_Driver/src/stm32_eth.c **** void ETH_DropRxPkt(void)
 603:../STM32_ETH_Driver/src/stm32_eth.c **** {
 1172              		.loc 1 603 0
 1173              		.cfi_startproc
 1174              		@ args = 0, pretend = 0, frame = 0
 1175              		@ frame_needed = 1, uses_anonymous_args = 0
 1176              		@ link register save eliminated.
 1177 0000 80B4     		push	{r7}
 1178              		.cfi_def_cfa_offset 4
 1179              		.cfi_offset 7, -4
 1180 0002 00AF     		add	r7, sp, #0
 1181              		.cfi_def_cfa_register 7
 604:../STM32_ETH_Driver/src/stm32_eth.c ****   /* Set Own bit of the Rx descriptor Status: gives the buffer back to ETHERNET DMA */
 605:../STM32_ETH_Driver/src/stm32_eth.c ****   DMARxDescToGet->Status = ETH_DMARxDesc_OWN;  
 1182              		.loc 1 605 0
 1183 0004 1A4B     		ldr	r3, .L46
 1184 0006 1B68     		ldr	r3, [r3]
 1185 0008 4FF00042 		mov	r2, #-2147483648
 1186 000c 1A60     		str	r2, [r3]
 606:../STM32_ETH_Driver/src/stm32_eth.c ****   /* Chained Mode */
 607:../STM32_ETH_Driver/src/stm32_eth.c ****   if((DMARxDescToGet->ControlBufferSize & ETH_DMARxDesc_RCH) != (uint32_t)RESET)
 1187              		.loc 1 607 0
 1188 000e 184B     		ldr	r3, .L46
 1189 0010 1B68     		ldr	r3, [r3]
 1190 0012 5B68     		ldr	r3, [r3, #4]
 1191 0014 03F48043 		and	r3, r3, #16384
 1192 0018 002B     		cmp	r3, #0
 1193 001a 06D0     		beq	.L43
 608:../STM32_ETH_Driver/src/stm32_eth.c ****   {
 609:../STM32_ETH_Driver/src/stm32_eth.c ****     /* Selects the next DMA Rx descriptor list for next buffer read */
 610:../STM32_ETH_Driver/src/stm32_eth.c ****     DMARxDescToGet = (ETH_DMADESCTypeDef*) (DMARxDescToGet->Buffer2NextDescAddr);
 1194              		.loc 1 610 0
 1195 001c 144B     		ldr	r3, .L46
 1196 001e 1B68     		ldr	r3, [r3]
 1197 0020 DB68     		ldr	r3, [r3, #12]
 1198 0022 1A46     		mov	r2, r3
 1199 0024 124B     		ldr	r3, .L46
 1200 0026 1A60     		str	r2, [r3]
 1201 0028 1DE0     		b	.L42
 1202              	.L43:
 611:../STM32_ETH_Driver/src/stm32_eth.c ****   }
 612:../STM32_ETH_Driver/src/stm32_eth.c ****   else /* Ring Mode */
 613:../STM32_ETH_Driver/src/stm32_eth.c ****   {
 614:../STM32_ETH_Driver/src/stm32_eth.c ****     if((DMARxDescToGet->ControlBufferSize & ETH_DMARxDesc_RER) != (uint32_t)RESET)
 1203              		.loc 1 614 0
 1204 002a 114B     		ldr	r3, .L46
 1205 002c 1B68     		ldr	r3, [r3]
 1206 002e 5B68     		ldr	r3, [r3, #4]
 1207 0030 03F40043 		and	r3, r3, #32768
 1208 0034 002B     		cmp	r3, #0
 1209 0036 08D0     		beq	.L45
 615:../STM32_ETH_Driver/src/stm32_eth.c ****     {
 616:../STM32_ETH_Driver/src/stm32_eth.c ****       /* Selects the next DMA Rx descriptor list for next buffer read: this will
 617:../STM32_ETH_Driver/src/stm32_eth.c ****          be the first Rx descriptor in this case */
 618:../STM32_ETH_Driver/src/stm32_eth.c ****       DMARxDescToGet = (ETH_DMADESCTypeDef*) (ETH->DMARDLAR);
 1210              		.loc 1 618 0
 1211 0038 0E4B     		ldr	r3, .L46+4
 1212 003a 03F58053 		add	r3, r3, #4096
 1213 003e 0C33     		adds	r3, r3, #12
 1214 0040 1B68     		ldr	r3, [r3]
 1215 0042 1A46     		mov	r2, r3
 1216 0044 0A4B     		ldr	r3, .L46
 1217 0046 1A60     		str	r2, [r3]
 1218 0048 0DE0     		b	.L42
 1219              	.L45:
 619:../STM32_ETH_Driver/src/stm32_eth.c ****     }
 620:../STM32_ETH_Driver/src/stm32_eth.c ****     else
 621:../STM32_ETH_Driver/src/stm32_eth.c ****     {
 622:../STM32_ETH_Driver/src/stm32_eth.c ****       /* Selects the next DMA Rx descriptor list for next buffer read */
 623:../STM32_ETH_Driver/src/stm32_eth.c ****       DMARxDescToGet = (ETH_DMADESCTypeDef*) ((uint32_t)DMARxDescToGet + 0x10 + ((ETH->DMABMR & ETH
 1220              		.loc 1 623 0
 1221 004a 0A4B     		ldr	r3, .L46+4
 1222 004c 03F58053 		add	r3, r3, #4096
 1223 0050 1B68     		ldr	r3, [r3]
 1224 0052 03F07C03 		and	r3, r3, #124
 1225 0056 9B08     		lsrs	r3, r3, #2
 1226 0058 054A     		ldr	r2, .L46
 1227 005a 1268     		ldr	r2, [r2]
 1228 005c 1344     		add	r3, r3, r2
 1229 005e 1033     		adds	r3, r3, #16
 1230 0060 1A46     		mov	r2, r3
 1231 0062 034B     		ldr	r3, .L46
 1232 0064 1A60     		str	r2, [r3]
 1233              	.L42:
 624:../STM32_ETH_Driver/src/stm32_eth.c ****     }
 625:../STM32_ETH_Driver/src/stm32_eth.c ****   }
 626:../STM32_ETH_Driver/src/stm32_eth.c **** }
 1234              		.loc 1 626 0
 1235 0066 BD46     		mov	sp, r7
 1236              		.cfi_def_cfa_register 13
 1237              		@ sp needed
 1238 0068 5DF8047B 		ldr	r7, [sp], #4
 1239              		.cfi_restore 7
 1240              		.cfi_def_cfa_offset 0
 1241 006c 7047     		bx	lr
 1242              	.L47:
 1243 006e 00BF     		.align	2
 1244              	.L46:
 1245 0070 00000000 		.word	DMARxDescToGet
 1246 0074 00800240 		.word	1073905664
 1247              		.cfi_endproc
 1248              	.LFE36:
 1250              		.section	.text.ETH_ReadPHYRegister,"ax",%progbits
 1251              		.align	2
 1252              		.global	ETH_ReadPHYRegister
 1253              		.thumb
 1254              		.thumb_func
 1256              	ETH_ReadPHYRegister:
 1257              	.LFB37:
 627:../STM32_ETH_Driver/src/stm32_eth.c **** 
 628:../STM32_ETH_Driver/src/stm32_eth.c **** /*---------------------------------  PHY  ------------------------------------*/
 629:../STM32_ETH_Driver/src/stm32_eth.c **** /**
 630:../STM32_ETH_Driver/src/stm32_eth.c ****   * @brief  Read a PHY register
 631:../STM32_ETH_Driver/src/stm32_eth.c ****   * @param PHYAddress: PHY device address, is the index of one of supported 32 PHY devices. 
 632:../STM32_ETH_Driver/src/stm32_eth.c ****   *   This parameter can be one of the following values: 0,..,31                  
 633:../STM32_ETH_Driver/src/stm32_eth.c ****   * @param PHYReg: PHY register address, is the index of one of the 32 PHY register. 
 634:../STM32_ETH_Driver/src/stm32_eth.c ****   *   This parameter can be one of the following values: 
 635:../STM32_ETH_Driver/src/stm32_eth.c ****   *     @arg PHY_BCR: Tranceiver Basic Control Register 
 636:../STM32_ETH_Driver/src/stm32_eth.c ****   *     @arg PHY_BSR: Tranceiver Basic Status Register 
 637:../STM32_ETH_Driver/src/stm32_eth.c ****   *     @arg PHY_SR : Tranceiver Status Register    
 638:../STM32_ETH_Driver/src/stm32_eth.c ****   *     @arg More PHY register could be read depending on the used PHY
 639:../STM32_ETH_Driver/src/stm32_eth.c ****   * @retval ETH_ERROR: in case of timeout
 640:../STM32_ETH_Driver/src/stm32_eth.c ****   *         MAC MIIDR register value: Data read from the selected PHY register (correct read )
 641:../STM32_ETH_Driver/src/stm32_eth.c ****   */
 642:../STM32_ETH_Driver/src/stm32_eth.c **** uint16_t ETH_ReadPHYRegister(uint16_t PHYAddress, uint16_t PHYReg)
 643:../STM32_ETH_Driver/src/stm32_eth.c **** {
 1258              		.loc 1 643 0
 1259              		.cfi_startproc
 1260              		@ args = 0, pretend = 0, frame = 16
 1261              		@ frame_needed = 1, uses_anonymous_args = 0
 1262              		@ link register save eliminated.
 1263 0000 80B4     		push	{r7}
 1264              		.cfi_def_cfa_offset 4
 1265              		.cfi_offset 7, -4
 1266 0002 85B0     		sub	sp, sp, #20
 1267              		.cfi_def_cfa_offset 24
 1268 0004 00AF     		add	r7, sp, #0
 1269              		.cfi_def_cfa_register 7
 1270 0006 0346     		mov	r3, r0
 1271 0008 0A46     		mov	r2, r1
 1272 000a FB80     		strh	r3, [r7, #6]	@ movhi
 1273 000c 1346     		mov	r3, r2	@ movhi
 1274 000e BB80     		strh	r3, [r7, #4]	@ movhi
 644:../STM32_ETH_Driver/src/stm32_eth.c ****   uint32_t tmpreg = 0;     
 1275              		.loc 1 644 0
 1276 0010 0023     		movs	r3, #0
 1277 0012 FB60     		str	r3, [r7, #12]
 645:../STM32_ETH_Driver/src/stm32_eth.c **** __IO uint32_t timeout = 0;
 1278              		.loc 1 645 0
 1279 0014 0023     		movs	r3, #0
 1280 0016 BB60     		str	r3, [r7, #8]
 646:../STM32_ETH_Driver/src/stm32_eth.c ****   /* Check the parameters */
 647:../STM32_ETH_Driver/src/stm32_eth.c ****   assert_param(IS_ETH_PHY_ADDRESS(PHYAddress));
 648:../STM32_ETH_Driver/src/stm32_eth.c ****   assert_param(IS_ETH_PHY_REG(PHYReg));
 649:../STM32_ETH_Driver/src/stm32_eth.c ****   
 650:../STM32_ETH_Driver/src/stm32_eth.c ****   /* Get the ETHERNET MACMIIAR value */
 651:../STM32_ETH_Driver/src/stm32_eth.c ****   tmpreg = ETH->MACMIIAR;
 1281              		.loc 1 651 0
 1282 0018 1E4B     		ldr	r3, .L53
 1283 001a 1B69     		ldr	r3, [r3, #16]
 1284 001c FB60     		str	r3, [r7, #12]
 652:../STM32_ETH_Driver/src/stm32_eth.c ****   /* Keep only the CSR Clock Range CR[2:0] bits value */
 653:../STM32_ETH_Driver/src/stm32_eth.c ****   tmpreg &= ~MACMIIAR_CR_MASK;
 1285              		.loc 1 653 0
 1286 001e FB68     		ldr	r3, [r7, #12]
 1287 0020 03F01C03 		and	r3, r3, #28
 1288 0024 FB60     		str	r3, [r7, #12]
 654:../STM32_ETH_Driver/src/stm32_eth.c ****   /* Prepare the MII address register value */
 655:../STM32_ETH_Driver/src/stm32_eth.c ****   tmpreg |=(((uint32_t)PHYAddress<<11) & ETH_MACMIIAR_PA); /* Set the PHY device address */
 1289              		.loc 1 655 0
 1290 0026 FB88     		ldrh	r3, [r7, #6]
 1291 0028 DB02     		lsls	r3, r3, #11
 1292 002a 9BB2     		uxth	r3, r3
 1293 002c FA68     		ldr	r2, [r7, #12]
 1294 002e 1343     		orrs	r3, r3, r2
 1295 0030 FB60     		str	r3, [r7, #12]
 656:../STM32_ETH_Driver/src/stm32_eth.c ****   tmpreg |=(((uint32_t)PHYReg<<6) & ETH_MACMIIAR_MR);      /* Set the PHY register address */
 1296              		.loc 1 656 0
 1297 0032 BB88     		ldrh	r3, [r7, #4]
 1298 0034 9B01     		lsls	r3, r3, #6
 1299 0036 03F4F863 		and	r3, r3, #1984
 1300 003a FA68     		ldr	r2, [r7, #12]
 1301 003c 1343     		orrs	r3, r3, r2
 1302 003e FB60     		str	r3, [r7, #12]
 657:../STM32_ETH_Driver/src/stm32_eth.c ****   tmpreg &= ~ETH_MACMIIAR_MW;                              /* Set the read mode */
 1303              		.loc 1 657 0
 1304 0040 FB68     		ldr	r3, [r7, #12]
 1305 0042 23F00203 		bic	r3, r3, #2
 1306 0046 FB60     		str	r3, [r7, #12]
 658:../STM32_ETH_Driver/src/stm32_eth.c ****   tmpreg |= ETH_MACMIIAR_MB;                               /* Set the MII Busy bit */
 1307              		.loc 1 658 0
 1308 0048 FB68     		ldr	r3, [r7, #12]
 1309 004a 43F00103 		orr	r3, r3, #1
 1310 004e FB60     		str	r3, [r7, #12]
 659:../STM32_ETH_Driver/src/stm32_eth.c ****   /* Write the result value into the MII Address register */
 660:../STM32_ETH_Driver/src/stm32_eth.c ****   ETH->MACMIIAR = tmpreg;
 1311              		.loc 1 660 0
 1312 0050 104A     		ldr	r2, .L53
 1313 0052 FB68     		ldr	r3, [r7, #12]
 1314 0054 1361     		str	r3, [r2, #16]
 1315              	.L50:
 661:../STM32_ETH_Driver/src/stm32_eth.c ****   /* Check for the Busy flag */
 662:../STM32_ETH_Driver/src/stm32_eth.c ****   do
 663:../STM32_ETH_Driver/src/stm32_eth.c ****   {
 664:../STM32_ETH_Driver/src/stm32_eth.c ****     timeout++;
 1316              		.loc 1 664 0 discriminator 2
 1317 0056 BB68     		ldr	r3, [r7, #8]
 1318 0058 0133     		adds	r3, r3, #1
 1319 005a BB60     		str	r3, [r7, #8]
 665:../STM32_ETH_Driver/src/stm32_eth.c ****     tmpreg = ETH->MACMIIAR;
 1320              		.loc 1 665 0 discriminator 2
 1321 005c 0D4B     		ldr	r3, .L53
 1322 005e 1B69     		ldr	r3, [r3, #16]
 1323 0060 FB60     		str	r3, [r7, #12]
 666:../STM32_ETH_Driver/src/stm32_eth.c ****   } while ((tmpreg & ETH_MACMIIAR_MB) && (timeout < (uint32_t)PHY_READ_TO));
 1324              		.loc 1 666 0 discriminator 2
 1325 0062 FB68     		ldr	r3, [r7, #12]
 1326 0064 03F00103 		and	r3, r3, #1
 1327 0068 002B     		cmp	r3, #0
 1328 006a 03D0     		beq	.L49
 1329              		.loc 1 666 0 is_stmt 0 discriminator 1
 1330 006c BB68     		ldr	r3, [r7, #8]
 1331 006e 0A4A     		ldr	r2, .L53+4
 1332 0070 9342     		cmp	r3, r2
 1333 0072 F0D9     		bls	.L50
 1334              	.L49:
 667:../STM32_ETH_Driver/src/stm32_eth.c ****   /* Return ERROR in case of timeout */
 668:../STM32_ETH_Driver/src/stm32_eth.c ****   if(timeout == PHY_READ_TO)
 1335              		.loc 1 668 0 is_stmt 1
 1336 0074 BB68     		ldr	r3, [r7, #8]
 1337 0076 094A     		ldr	r2, .L53+8
 1338 0078 9342     		cmp	r3, r2
 1339 007a 01D1     		bne	.L51
 669:../STM32_ETH_Driver/src/stm32_eth.c ****   {
 670:../STM32_ETH_Driver/src/stm32_eth.c ****     return (uint16_t)ETH_ERROR;
 1340              		.loc 1 670 0
 1341 007c 0023     		movs	r3, #0
 1342 007e 02E0     		b	.L52
 1343              	.L51:
 671:../STM32_ETH_Driver/src/stm32_eth.c ****   }
 672:../STM32_ETH_Driver/src/stm32_eth.c ****   
 673:../STM32_ETH_Driver/src/stm32_eth.c ****   /* Return data register value */
 674:../STM32_ETH_Driver/src/stm32_eth.c ****   return (uint16_t)(ETH->MACMIIDR);
 1344              		.loc 1 674 0
 1345 0080 044B     		ldr	r3, .L53
 1346 0082 5B69     		ldr	r3, [r3, #20]
 1347 0084 9BB2     		uxth	r3, r3
 1348              	.L52:
 675:../STM32_ETH_Driver/src/stm32_eth.c **** }
 1349              		.loc 1 675 0
 1350 0086 1846     		mov	r0, r3
 1351 0088 1437     		adds	r7, r7, #20
 1352              		.cfi_def_cfa_offset 4
 1353 008a BD46     		mov	sp, r7
 1354              		.cfi_def_cfa_register 13
 1355              		@ sp needed
 1356 008c 5DF8047B 		ldr	r7, [sp], #4
 1357              		.cfi_restore 7
 1358              		.cfi_def_cfa_offset 0
 1359 0090 7047     		bx	lr
 1360              	.L54:
 1361 0092 00BF     		.align	2
 1362              	.L53:
 1363 0094 00800240 		.word	1073905664
 1364 0098 FEFF0400 		.word	327678
 1365 009c FFFF0400 		.word	327679
 1366              		.cfi_endproc
 1367              	.LFE37:
 1369              		.section	.text.ETH_WritePHYRegister,"ax",%progbits
 1370              		.align	2
 1371              		.global	ETH_WritePHYRegister
 1372              		.thumb
 1373              		.thumb_func
 1375              	ETH_WritePHYRegister:
 1376              	.LFB38:
 676:../STM32_ETH_Driver/src/stm32_eth.c **** 
 677:../STM32_ETH_Driver/src/stm32_eth.c **** /**
 678:../STM32_ETH_Driver/src/stm32_eth.c ****   * @brief  Write to a PHY register
 679:../STM32_ETH_Driver/src/stm32_eth.c ****   * @param PHYAddress: PHY device address, is the index of one of supported 32 PHY devices. 
 680:../STM32_ETH_Driver/src/stm32_eth.c ****   *   This parameter can be one of the following values: 0,..,31
 681:../STM32_ETH_Driver/src/stm32_eth.c ****   * @param PHYReg: PHY register address, is the index of one of the 32 PHY register. 
 682:../STM32_ETH_Driver/src/stm32_eth.c ****   *   This parameter can be one of the following values: 
 683:../STM32_ETH_Driver/src/stm32_eth.c ****   *     @arg PHY_BCR    : Tranceiver Control Register  
 684:../STM32_ETH_Driver/src/stm32_eth.c ****   *     @arg More PHY register could be written depending on the used PHY
 685:../STM32_ETH_Driver/src/stm32_eth.c ****   * @param  PHYValue: the value to write
 686:../STM32_ETH_Driver/src/stm32_eth.c ****   * @retval ETH_ERROR: in case of timeout
 687:../STM32_ETH_Driver/src/stm32_eth.c ****   *         ETH_SUCCESS: for correct write
 688:../STM32_ETH_Driver/src/stm32_eth.c ****   */
 689:../STM32_ETH_Driver/src/stm32_eth.c **** uint32_t ETH_WritePHYRegister(uint16_t PHYAddress, uint16_t PHYReg, uint16_t PHYValue)
 690:../STM32_ETH_Driver/src/stm32_eth.c **** {
 1377              		.loc 1 690 0
 1378              		.cfi_startproc
 1379              		@ args = 0, pretend = 0, frame = 16
 1380              		@ frame_needed = 1, uses_anonymous_args = 0
 1381              		@ link register save eliminated.
 1382 0000 80B4     		push	{r7}
 1383              		.cfi_def_cfa_offset 4
 1384              		.cfi_offset 7, -4
 1385 0002 85B0     		sub	sp, sp, #20
 1386              		.cfi_def_cfa_offset 24
 1387 0004 00AF     		add	r7, sp, #0
 1388              		.cfi_def_cfa_register 7
 1389 0006 0346     		mov	r3, r0
 1390 0008 FB80     		strh	r3, [r7, #6]	@ movhi
 1391 000a 0B46     		mov	r3, r1	@ movhi
 1392 000c BB80     		strh	r3, [r7, #4]	@ movhi
 1393 000e 1346     		mov	r3, r2	@ movhi
 1394 0010 7B80     		strh	r3, [r7, #2]	@ movhi
 691:../STM32_ETH_Driver/src/stm32_eth.c ****   uint32_t tmpreg = 0;     
 1395              		.loc 1 691 0
 1396 0012 0023     		movs	r3, #0
 1397 0014 FB60     		str	r3, [r7, #12]
 692:../STM32_ETH_Driver/src/stm32_eth.c ****   __IO uint32_t timeout = 0;
 1398              		.loc 1 692 0
 1399 0016 0023     		movs	r3, #0
 1400 0018 BB60     		str	r3, [r7, #8]
 693:../STM32_ETH_Driver/src/stm32_eth.c ****   /* Check the parameters */
 694:../STM32_ETH_Driver/src/stm32_eth.c ****   assert_param(IS_ETH_PHY_ADDRESS(PHYAddress));
 695:../STM32_ETH_Driver/src/stm32_eth.c ****   assert_param(IS_ETH_PHY_REG(PHYReg));
 696:../STM32_ETH_Driver/src/stm32_eth.c ****   
 697:../STM32_ETH_Driver/src/stm32_eth.c ****   /* Get the ETHERNET MACMIIAR value */
 698:../STM32_ETH_Driver/src/stm32_eth.c ****   tmpreg = ETH->MACMIIAR;
 1401              		.loc 1 698 0
 1402 001a 1F4B     		ldr	r3, .L60
 1403 001c 1B69     		ldr	r3, [r3, #16]
 1404 001e FB60     		str	r3, [r7, #12]
 699:../STM32_ETH_Driver/src/stm32_eth.c ****   /* Keep only the CSR Clock Range CR[2:0] bits value */
 700:../STM32_ETH_Driver/src/stm32_eth.c ****   tmpreg &= ~MACMIIAR_CR_MASK;
 1405              		.loc 1 700 0
 1406 0020 FB68     		ldr	r3, [r7, #12]
 1407 0022 03F01C03 		and	r3, r3, #28
 1408 0026 FB60     		str	r3, [r7, #12]
 701:../STM32_ETH_Driver/src/stm32_eth.c ****   /* Prepare the MII register address value */
 702:../STM32_ETH_Driver/src/stm32_eth.c ****   tmpreg |=(((uint32_t)PHYAddress<<11) & ETH_MACMIIAR_PA); /* Set the PHY device address */
 1409              		.loc 1 702 0
 1410 0028 FB88     		ldrh	r3, [r7, #6]
 1411 002a DB02     		lsls	r3, r3, #11
 1412 002c 9BB2     		uxth	r3, r3
 1413 002e FA68     		ldr	r2, [r7, #12]
 1414 0030 1343     		orrs	r3, r3, r2
 1415 0032 FB60     		str	r3, [r7, #12]
 703:../STM32_ETH_Driver/src/stm32_eth.c ****   tmpreg |=(((uint32_t)PHYReg<<6) & ETH_MACMIIAR_MR);      /* Set the PHY register address */
 1416              		.loc 1 703 0
 1417 0034 BB88     		ldrh	r3, [r7, #4]
 1418 0036 9B01     		lsls	r3, r3, #6
 1419 0038 03F4F863 		and	r3, r3, #1984
 1420 003c FA68     		ldr	r2, [r7, #12]
 1421 003e 1343     		orrs	r3, r3, r2
 1422 0040 FB60     		str	r3, [r7, #12]
 704:../STM32_ETH_Driver/src/stm32_eth.c ****   tmpreg |= ETH_MACMIIAR_MW;                               /* Set the write mode */
 1423              		.loc 1 704 0
 1424 0042 FB68     		ldr	r3, [r7, #12]
 1425 0044 43F00203 		orr	r3, r3, #2
 1426 0048 FB60     		str	r3, [r7, #12]
 705:../STM32_ETH_Driver/src/stm32_eth.c ****   tmpreg |= ETH_MACMIIAR_MB;                               /* Set the MII Busy bit */
 1427              		.loc 1 705 0
 1428 004a FB68     		ldr	r3, [r7, #12]
 1429 004c 43F00103 		orr	r3, r3, #1
 1430 0050 FB60     		str	r3, [r7, #12]
 706:../STM32_ETH_Driver/src/stm32_eth.c ****   /* Give the value to the MII data register */
 707:../STM32_ETH_Driver/src/stm32_eth.c ****   ETH->MACMIIDR = PHYValue;
 1431              		.loc 1 707 0
 1432 0052 114A     		ldr	r2, .L60
 1433 0054 7B88     		ldrh	r3, [r7, #2]
 1434 0056 5361     		str	r3, [r2, #20]
 708:../STM32_ETH_Driver/src/stm32_eth.c ****   /* Write the result value into the MII Address register */
 709:../STM32_ETH_Driver/src/stm32_eth.c ****   ETH->MACMIIAR = tmpreg;
 1435              		.loc 1 709 0
 1436 0058 0F4A     		ldr	r2, .L60
 1437 005a FB68     		ldr	r3, [r7, #12]
 1438 005c 1361     		str	r3, [r2, #16]
 1439              	.L57:
 710:../STM32_ETH_Driver/src/stm32_eth.c ****   /* Check for the Busy flag */
 711:../STM32_ETH_Driver/src/stm32_eth.c ****   do
 712:../STM32_ETH_Driver/src/stm32_eth.c ****   {
 713:../STM32_ETH_Driver/src/stm32_eth.c ****     timeout++;
 1440              		.loc 1 713 0 discriminator 2
 1441 005e BB68     		ldr	r3, [r7, #8]
 1442 0060 0133     		adds	r3, r3, #1
 1443 0062 BB60     		str	r3, [r7, #8]
 714:../STM32_ETH_Driver/src/stm32_eth.c ****     tmpreg = ETH->MACMIIAR;
 1444              		.loc 1 714 0 discriminator 2
 1445 0064 0C4B     		ldr	r3, .L60
 1446 0066 1B69     		ldr	r3, [r3, #16]
 1447 0068 FB60     		str	r3, [r7, #12]
 715:../STM32_ETH_Driver/src/stm32_eth.c ****   } while ((tmpreg & ETH_MACMIIAR_MB) && (timeout < (uint32_t)PHY_WRITE_TO));
 1448              		.loc 1 715 0 discriminator 2
 1449 006a FB68     		ldr	r3, [r7, #12]
 1450 006c 03F00103 		and	r3, r3, #1
 1451 0070 002B     		cmp	r3, #0
 1452 0072 03D0     		beq	.L56
 1453              		.loc 1 715 0 is_stmt 0 discriminator 1
 1454 0074 BB68     		ldr	r3, [r7, #8]
 1455 0076 094A     		ldr	r2, .L60+4
 1456 0078 9342     		cmp	r3, r2
 1457 007a F0D9     		bls	.L57
 1458              	.L56:
 716:../STM32_ETH_Driver/src/stm32_eth.c ****   /* Return ERROR in case of timeout */
 717:../STM32_ETH_Driver/src/stm32_eth.c ****   if(timeout == PHY_WRITE_TO)
 1459              		.loc 1 717 0 is_stmt 1
 1460 007c BB68     		ldr	r3, [r7, #8]
 1461 007e 084A     		ldr	r2, .L60+8
 1462 0080 9342     		cmp	r3, r2
 1463 0082 01D1     		bne	.L58
 718:../STM32_ETH_Driver/src/stm32_eth.c ****     return ETH_ERROR;
 1464              		.loc 1 718 0
 1465 0084 0023     		movs	r3, #0
 1466 0086 00E0     		b	.L59
 1467              	.L58:
 719:../STM32_ETH_Driver/src/stm32_eth.c ****   else
 720:../STM32_ETH_Driver/src/stm32_eth.c **** 	return ETH_SUCCESS;
 1468              		.loc 1 720 0
 1469 0088 0123     		movs	r3, #1
 1470              	.L59:
 721:../STM32_ETH_Driver/src/stm32_eth.c **** }
 1471              		.loc 1 721 0
 1472 008a 1846     		mov	r0, r3
 1473 008c 1437     		adds	r7, r7, #20
 1474              		.cfi_def_cfa_offset 4
 1475 008e BD46     		mov	sp, r7
 1476              		.cfi_def_cfa_register 13
 1477              		@ sp needed
 1478 0090 5DF8047B 		ldr	r7, [sp], #4
 1479              		.cfi_restore 7
 1480              		.cfi_def_cfa_offset 0
 1481 0094 7047     		bx	lr
 1482              	.L61:
 1483 0096 00BF     		.align	2
 1484              	.L60:
 1485 0098 00800240 		.word	1073905664
 1486 009c FEFF0400 		.word	327678
 1487 00a0 FFFF0400 		.word	327679
 1488              		.cfi_endproc
 1489              	.LFE38:
 1491              		.section	.text.ETH_PHYLoopBackCmd,"ax",%progbits
 1492              		.align	2
 1493              		.global	ETH_PHYLoopBackCmd
 1494              		.thumb
 1495              		.thumb_func
 1497              	ETH_PHYLoopBackCmd:
 1498              	.LFB39:
 722:../STM32_ETH_Driver/src/stm32_eth.c **** 
 723:../STM32_ETH_Driver/src/stm32_eth.c **** /**
 724:../STM32_ETH_Driver/src/stm32_eth.c ****   * @brief  Enables or disables the PHY loopBack mode.
 725:../STM32_ETH_Driver/src/stm32_eth.c ****   * @Note: Don't be confused with ETH_MACLoopBackCmd function which enables internal
 726:../STM32_ETH_Driver/src/stm32_eth.c ****   *  loopback at MII level
 727:../STM32_ETH_Driver/src/stm32_eth.c ****   * @param  PHYAddress: PHY device address, is the index of one of supported 32 PHY devices. 
 728:../STM32_ETH_Driver/src/stm32_eth.c ****   *   This parameter can be one of the following values:                   
 729:../STM32_ETH_Driver/src/stm32_eth.c ****   * @param  NewState: new state of the PHY loopBack mode.
 730:../STM32_ETH_Driver/src/stm32_eth.c ****   *   This parameter can be: ENABLE or DISABLE.    
 731:../STM32_ETH_Driver/src/stm32_eth.c ****   * @retval ETH_ERROR: in case of bad PHY configuration
 732:../STM32_ETH_Driver/src/stm32_eth.c ****   *         ETH_SUCCESS: for correct PHY configuration
 733:../STM32_ETH_Driver/src/stm32_eth.c ****   */
 734:../STM32_ETH_Driver/src/stm32_eth.c **** uint32_t ETH_PHYLoopBackCmd(uint16_t PHYAddress, FunctionalState NewState)
 735:../STM32_ETH_Driver/src/stm32_eth.c **** {
 1499              		.loc 1 735 0
 1500              		.cfi_startproc
 1501              		@ args = 0, pretend = 0, frame = 16
 1502              		@ frame_needed = 1, uses_anonymous_args = 0
 1503 0000 80B5     		push	{r7, lr}
 1504              		.cfi_def_cfa_offset 8
 1505              		.cfi_offset 7, -8
 1506              		.cfi_offset 14, -4
 1507 0002 84B0     		sub	sp, sp, #16
 1508              		.cfi_def_cfa_offset 24
 1509 0004 00AF     		add	r7, sp, #0
 1510              		.cfi_def_cfa_register 7
 1511 0006 0346     		mov	r3, r0
 1512 0008 0A46     		mov	r2, r1
 1513 000a FB80     		strh	r3, [r7, #6]	@ movhi
 1514 000c 1346     		mov	r3, r2
 1515 000e 7B71     		strb	r3, [r7, #5]
 736:../STM32_ETH_Driver/src/stm32_eth.c ****   uint16_t tmpreg = 0;
 1516              		.loc 1 736 0
 1517 0010 0023     		movs	r3, #0
 1518 0012 FB81     		strh	r3, [r7, #14]	@ movhi
 737:../STM32_ETH_Driver/src/stm32_eth.c ****   /* Check the parameters */
 738:../STM32_ETH_Driver/src/stm32_eth.c ****   assert_param(IS_ETH_PHY_ADDRESS(PHYAddress));
 739:../STM32_ETH_Driver/src/stm32_eth.c ****   assert_param(IS_FUNCTIONAL_STATE(NewState));
 740:../STM32_ETH_Driver/src/stm32_eth.c ****     
 741:../STM32_ETH_Driver/src/stm32_eth.c ****   /* Get the PHY configuration to update it */
 742:../STM32_ETH_Driver/src/stm32_eth.c ****   tmpreg = ETH_ReadPHYRegister(PHYAddress, PHY_BCR); 
 1519              		.loc 1 742 0
 1520 0014 FB88     		ldrh	r3, [r7, #6]
 1521 0016 1846     		mov	r0, r3
 1522 0018 0021     		movs	r1, #0
 1523 001a FFF7FEFF 		bl	ETH_ReadPHYRegister
 1524 001e 0346     		mov	r3, r0
 1525 0020 FB81     		strh	r3, [r7, #14]	@ movhi
 743:../STM32_ETH_Driver/src/stm32_eth.c ****   
 744:../STM32_ETH_Driver/src/stm32_eth.c ****   if (NewState != DISABLE)
 1526              		.loc 1 744 0
 1527 0022 7B79     		ldrb	r3, [r7, #5]	@ zero_extendqisi2
 1528 0024 002B     		cmp	r3, #0
 1529 0026 04D0     		beq	.L63
 745:../STM32_ETH_Driver/src/stm32_eth.c ****   {
 746:../STM32_ETH_Driver/src/stm32_eth.c ****     /* Enable the PHY loopback mode */
 747:../STM32_ETH_Driver/src/stm32_eth.c ****     tmpreg |= PHY_Loopback;  
 1530              		.loc 1 747 0
 1531 0028 FB89     		ldrh	r3, [r7, #14]	@ movhi
 1532 002a 43F48043 		orr	r3, r3, #16384
 1533 002e FB81     		strh	r3, [r7, #14]	@ movhi
 1534 0030 03E0     		b	.L64
 1535              	.L63:
 748:../STM32_ETH_Driver/src/stm32_eth.c ****   }
 749:../STM32_ETH_Driver/src/stm32_eth.c ****   else
 750:../STM32_ETH_Driver/src/stm32_eth.c ****   {
 751:../STM32_ETH_Driver/src/stm32_eth.c ****     /* Disable the PHY loopback mode: normal mode */
 752:../STM32_ETH_Driver/src/stm32_eth.c ****     tmpreg &= (uint16_t)(~(uint16_t)PHY_Loopback);
 1536              		.loc 1 752 0
 1537 0032 FB89     		ldrh	r3, [r7, #14]	@ movhi
 1538 0034 23F48043 		bic	r3, r3, #16384
 1539 0038 FB81     		strh	r3, [r7, #14]	@ movhi
 1540              	.L64:
 753:../STM32_ETH_Driver/src/stm32_eth.c ****   }
 754:../STM32_ETH_Driver/src/stm32_eth.c ****   /* Update the PHY control register with the new configuration */
 755:../STM32_ETH_Driver/src/stm32_eth.c ****   if(ETH_WritePHYRegister(PHYAddress, PHY_BCR, tmpreg) != (uint32_t)RESET)
 1541              		.loc 1 755 0
 1542 003a FA88     		ldrh	r2, [r7, #6]
 1543 003c FB89     		ldrh	r3, [r7, #14]
 1544 003e 1046     		mov	r0, r2
 1545 0040 0021     		movs	r1, #0
 1546 0042 1A46     		mov	r2, r3
 1547 0044 FFF7FEFF 		bl	ETH_WritePHYRegister
 1548 0048 0346     		mov	r3, r0
 1549 004a 002B     		cmp	r3, #0
 1550 004c 01D0     		beq	.L65
 756:../STM32_ETH_Driver/src/stm32_eth.c ****   {
 757:../STM32_ETH_Driver/src/stm32_eth.c ****     return ETH_SUCCESS;
 1551              		.loc 1 757 0
 1552 004e 0123     		movs	r3, #1
 1553 0050 00E0     		b	.L66
 1554              	.L65:
 758:../STM32_ETH_Driver/src/stm32_eth.c ****   }
 759:../STM32_ETH_Driver/src/stm32_eth.c ****   else
 760:../STM32_ETH_Driver/src/stm32_eth.c ****   {
 761:../STM32_ETH_Driver/src/stm32_eth.c ****     /* Return SUCCESS */
 762:../STM32_ETH_Driver/src/stm32_eth.c ****     return ETH_ERROR; 
 1555              		.loc 1 762 0
 1556 0052 0023     		movs	r3, #0
 1557              	.L66:
 763:../STM32_ETH_Driver/src/stm32_eth.c ****   }   
 764:../STM32_ETH_Driver/src/stm32_eth.c **** }
 1558              		.loc 1 764 0
 1559 0054 1846     		mov	r0, r3
 1560 0056 1037     		adds	r7, r7, #16
 1561              		.cfi_def_cfa_offset 8
 1562 0058 BD46     		mov	sp, r7
 1563              		.cfi_def_cfa_register 13
 1564              		@ sp needed
 1565 005a 80BD     		pop	{r7, pc}
 1566              		.cfi_endproc
 1567              	.LFE39:
 1569              		.section	.text.ETH_MACTransmissionCmd,"ax",%progbits
 1570              		.align	2
 1571              		.global	ETH_MACTransmissionCmd
 1572              		.thumb
 1573              		.thumb_func
 1575              	ETH_MACTransmissionCmd:
 1576              	.LFB40:
 765:../STM32_ETH_Driver/src/stm32_eth.c **** 
 766:../STM32_ETH_Driver/src/stm32_eth.c **** /*---------------------------------  MAC  ------------------------------------*/
 767:../STM32_ETH_Driver/src/stm32_eth.c **** /**
 768:../STM32_ETH_Driver/src/stm32_eth.c ****   * @brief  Enables or disables the MAC transmission.
 769:../STM32_ETH_Driver/src/stm32_eth.c ****   * @param  NewState: new state of the MAC transmission.
 770:../STM32_ETH_Driver/src/stm32_eth.c ****   *   This parameter can be: ENABLE or DISABLE.
 771:../STM32_ETH_Driver/src/stm32_eth.c ****   * @retval None
 772:../STM32_ETH_Driver/src/stm32_eth.c ****   */
 773:../STM32_ETH_Driver/src/stm32_eth.c **** void ETH_MACTransmissionCmd(FunctionalState NewState)
 774:../STM32_ETH_Driver/src/stm32_eth.c **** { 
 1577              		.loc 1 774 0
 1578              		.cfi_startproc
 1579              		@ args = 0, pretend = 0, frame = 8
 1580              		@ frame_needed = 1, uses_anonymous_args = 0
 1581              		@ link register save eliminated.
 1582 0000 80B4     		push	{r7}
 1583              		.cfi_def_cfa_offset 4
 1584              		.cfi_offset 7, -4
 1585 0002 83B0     		sub	sp, sp, #12
 1586              		.cfi_def_cfa_offset 16
 1587 0004 00AF     		add	r7, sp, #0
 1588              		.cfi_def_cfa_register 7
 1589 0006 0346     		mov	r3, r0
 1590 0008 FB71     		strb	r3, [r7, #7]
 775:../STM32_ETH_Driver/src/stm32_eth.c ****   /* Check the parameters */
 776:../STM32_ETH_Driver/src/stm32_eth.c ****   assert_param(IS_FUNCTIONAL_STATE(NewState));
 777:../STM32_ETH_Driver/src/stm32_eth.c ****   
 778:../STM32_ETH_Driver/src/stm32_eth.c ****   if (NewState != DISABLE)
 1591              		.loc 1 778 0
 1592 000a FB79     		ldrb	r3, [r7, #7]	@ zero_extendqisi2
 1593 000c 002B     		cmp	r3, #0
 1594 000e 06D0     		beq	.L68
 779:../STM32_ETH_Driver/src/stm32_eth.c ****   {
 780:../STM32_ETH_Driver/src/stm32_eth.c ****     /* Enable the MAC transmission */
 781:../STM32_ETH_Driver/src/stm32_eth.c ****     ETH->MACCR |= ETH_MACCR_TE;  
 1595              		.loc 1 781 0
 1596 0010 084A     		ldr	r2, .L70
 1597 0012 084B     		ldr	r3, .L70
 1598 0014 1B68     		ldr	r3, [r3]
 1599 0016 43F00803 		orr	r3, r3, #8
 1600 001a 1360     		str	r3, [r2]
 1601 001c 05E0     		b	.L67
 1602              	.L68:
 782:../STM32_ETH_Driver/src/stm32_eth.c ****   }
 783:../STM32_ETH_Driver/src/stm32_eth.c ****   else
 784:../STM32_ETH_Driver/src/stm32_eth.c ****   {
 785:../STM32_ETH_Driver/src/stm32_eth.c ****     /* Disable the MAC transmission */
 786:../STM32_ETH_Driver/src/stm32_eth.c ****     ETH->MACCR &= ~ETH_MACCR_TE;
 1603              		.loc 1 786 0
 1604 001e 054A     		ldr	r2, .L70
 1605 0020 044B     		ldr	r3, .L70
 1606 0022 1B68     		ldr	r3, [r3]
 1607 0024 23F00803 		bic	r3, r3, #8
 1608 0028 1360     		str	r3, [r2]
 1609              	.L67:
 787:../STM32_ETH_Driver/src/stm32_eth.c ****   }
 788:../STM32_ETH_Driver/src/stm32_eth.c **** }
 1610              		.loc 1 788 0
 1611 002a 0C37     		adds	r7, r7, #12
 1612              		.cfi_def_cfa_offset 4
 1613 002c BD46     		mov	sp, r7
 1614              		.cfi_def_cfa_register 13
 1615              		@ sp needed
 1616 002e 5DF8047B 		ldr	r7, [sp], #4
 1617              		.cfi_restore 7
 1618              		.cfi_def_cfa_offset 0
 1619 0032 7047     		bx	lr
 1620              	.L71:
 1621              		.align	2
 1622              	.L70:
 1623 0034 00800240 		.word	1073905664
 1624              		.cfi_endproc
 1625              	.LFE40:
 1627              		.section	.text.ETH_MACReceptionCmd,"ax",%progbits
 1628              		.align	2
 1629              		.global	ETH_MACReceptionCmd
 1630              		.thumb
 1631              		.thumb_func
 1633              	ETH_MACReceptionCmd:
 1634              	.LFB41:
 789:../STM32_ETH_Driver/src/stm32_eth.c **** 
 790:../STM32_ETH_Driver/src/stm32_eth.c **** /**
 791:../STM32_ETH_Driver/src/stm32_eth.c ****   * @brief  Enables or disables the MAC reception.
 792:../STM32_ETH_Driver/src/stm32_eth.c ****   * @param  NewState: new state of the MAC reception.
 793:../STM32_ETH_Driver/src/stm32_eth.c ****   *   This parameter can be: ENABLE or DISABLE.
 794:../STM32_ETH_Driver/src/stm32_eth.c ****   * @retval None
 795:../STM32_ETH_Driver/src/stm32_eth.c ****   */
 796:../STM32_ETH_Driver/src/stm32_eth.c **** void ETH_MACReceptionCmd(FunctionalState NewState)
 797:../STM32_ETH_Driver/src/stm32_eth.c **** { 
 1635              		.loc 1 797 0
 1636              		.cfi_startproc
 1637              		@ args = 0, pretend = 0, frame = 8
 1638              		@ frame_needed = 1, uses_anonymous_args = 0
 1639              		@ link register save eliminated.
 1640 0000 80B4     		push	{r7}
 1641              		.cfi_def_cfa_offset 4
 1642              		.cfi_offset 7, -4
 1643 0002 83B0     		sub	sp, sp, #12
 1644              		.cfi_def_cfa_offset 16
 1645 0004 00AF     		add	r7, sp, #0
 1646              		.cfi_def_cfa_register 7
 1647 0006 0346     		mov	r3, r0
 1648 0008 FB71     		strb	r3, [r7, #7]
 798:../STM32_ETH_Driver/src/stm32_eth.c ****   /* Check the parameters */
 799:../STM32_ETH_Driver/src/stm32_eth.c ****   assert_param(IS_FUNCTIONAL_STATE(NewState));
 800:../STM32_ETH_Driver/src/stm32_eth.c ****   
 801:../STM32_ETH_Driver/src/stm32_eth.c ****   if (NewState != DISABLE)
 1649              		.loc 1 801 0
 1650 000a FB79     		ldrb	r3, [r7, #7]	@ zero_extendqisi2
 1651 000c 002B     		cmp	r3, #0
 1652 000e 06D0     		beq	.L73
 802:../STM32_ETH_Driver/src/stm32_eth.c ****   {
 803:../STM32_ETH_Driver/src/stm32_eth.c ****     /* Enable the MAC reception */
 804:../STM32_ETH_Driver/src/stm32_eth.c ****     ETH->MACCR |= ETH_MACCR_RE;  
 1653              		.loc 1 804 0
 1654 0010 084A     		ldr	r2, .L75
 1655 0012 084B     		ldr	r3, .L75
 1656 0014 1B68     		ldr	r3, [r3]
 1657 0016 43F00403 		orr	r3, r3, #4
 1658 001a 1360     		str	r3, [r2]
 1659 001c 05E0     		b	.L72
 1660              	.L73:
 805:../STM32_ETH_Driver/src/stm32_eth.c ****   }
 806:../STM32_ETH_Driver/src/stm32_eth.c ****   else
 807:../STM32_ETH_Driver/src/stm32_eth.c ****   {
 808:../STM32_ETH_Driver/src/stm32_eth.c ****     /* Disable the MAC reception */
 809:../STM32_ETH_Driver/src/stm32_eth.c ****     ETH->MACCR &= ~ETH_MACCR_RE;
 1661              		.loc 1 809 0
 1662 001e 054A     		ldr	r2, .L75
 1663 0020 044B     		ldr	r3, .L75
 1664 0022 1B68     		ldr	r3, [r3]
 1665 0024 23F00403 		bic	r3, r3, #4
 1666 0028 1360     		str	r3, [r2]
 1667              	.L72:
 810:../STM32_ETH_Driver/src/stm32_eth.c ****   }
 811:../STM32_ETH_Driver/src/stm32_eth.c **** }
 1668              		.loc 1 811 0
 1669 002a 0C37     		adds	r7, r7, #12
 1670              		.cfi_def_cfa_offset 4
 1671 002c BD46     		mov	sp, r7
 1672              		.cfi_def_cfa_register 13
 1673              		@ sp needed
 1674 002e 5DF8047B 		ldr	r7, [sp], #4
 1675              		.cfi_restore 7
 1676              		.cfi_def_cfa_offset 0
 1677 0032 7047     		bx	lr
 1678              	.L76:
 1679              		.align	2
 1680              	.L75:
 1681 0034 00800240 		.word	1073905664
 1682              		.cfi_endproc
 1683              	.LFE41:
 1685              		.section	.text.ETH_GetFlowControlBusyStatus,"ax",%progbits
 1686              		.align	2
 1687              		.global	ETH_GetFlowControlBusyStatus
 1688              		.thumb
 1689              		.thumb_func
 1691              	ETH_GetFlowControlBusyStatus:
 1692              	.LFB42:
 812:../STM32_ETH_Driver/src/stm32_eth.c **** 
 813:../STM32_ETH_Driver/src/stm32_eth.c **** /**
 814:../STM32_ETH_Driver/src/stm32_eth.c ****   * @brief  Checks whether the ETHERNET flow control busy bit is set or not.
 815:../STM32_ETH_Driver/src/stm32_eth.c ****   * @param  None
 816:../STM32_ETH_Driver/src/stm32_eth.c ****   * @retval The new state of flow control busy status bit (SET or RESET).
 817:../STM32_ETH_Driver/src/stm32_eth.c ****   */
 818:../STM32_ETH_Driver/src/stm32_eth.c **** FlagStatus ETH_GetFlowControlBusyStatus(void)
 819:../STM32_ETH_Driver/src/stm32_eth.c **** {
 1693              		.loc 1 819 0
 1694              		.cfi_startproc
 1695              		@ args = 0, pretend = 0, frame = 8
 1696              		@ frame_needed = 1, uses_anonymous_args = 0
 1697              		@ link register save eliminated.
 1698 0000 80B4     		push	{r7}
 1699              		.cfi_def_cfa_offset 4
 1700              		.cfi_offset 7, -4
 1701 0002 83B0     		sub	sp, sp, #12
 1702              		.cfi_def_cfa_offset 16
 1703 0004 00AF     		add	r7, sp, #0
 1704              		.cfi_def_cfa_register 7
 820:../STM32_ETH_Driver/src/stm32_eth.c ****   FlagStatus bitstatus = RESET;
 1705              		.loc 1 820 0
 1706 0006 0023     		movs	r3, #0
 1707 0008 FB71     		strb	r3, [r7, #7]
 821:../STM32_ETH_Driver/src/stm32_eth.c ****   /* The Flow Control register should not be written to until this bit is cleared */
 822:../STM32_ETH_Driver/src/stm32_eth.c ****   if ((ETH->MACFCR & ETH_MACFCR_FCBBPA) != (uint32_t)RESET)
 1708              		.loc 1 822 0
 1709 000a 094B     		ldr	r3, .L81
 1710 000c 9B69     		ldr	r3, [r3, #24]
 1711 000e 03F00103 		and	r3, r3, #1
 1712 0012 002B     		cmp	r3, #0
 1713 0014 02D0     		beq	.L78
 823:../STM32_ETH_Driver/src/stm32_eth.c ****   {
 824:../STM32_ETH_Driver/src/stm32_eth.c ****     bitstatus = SET;
 1714              		.loc 1 824 0
 1715 0016 0123     		movs	r3, #1
 1716 0018 FB71     		strb	r3, [r7, #7]
 1717 001a 01E0     		b	.L79
 1718              	.L78:
 825:../STM32_ETH_Driver/src/stm32_eth.c ****   }
 826:../STM32_ETH_Driver/src/stm32_eth.c ****   else
 827:../STM32_ETH_Driver/src/stm32_eth.c ****   {
 828:../STM32_ETH_Driver/src/stm32_eth.c ****     bitstatus = RESET;
 1719              		.loc 1 828 0
 1720 001c 0023     		movs	r3, #0
 1721 001e FB71     		strb	r3, [r7, #7]
 1722              	.L79:
 829:../STM32_ETH_Driver/src/stm32_eth.c ****   }
 830:../STM32_ETH_Driver/src/stm32_eth.c ****   return bitstatus;
 1723              		.loc 1 830 0
 1724 0020 FB79     		ldrb	r3, [r7, #7]	@ zero_extendqisi2
 831:../STM32_ETH_Driver/src/stm32_eth.c **** }
 1725              		.loc 1 831 0
 1726 0022 1846     		mov	r0, r3
 1727 0024 0C37     		adds	r7, r7, #12
 1728              		.cfi_def_cfa_offset 4
 1729 0026 BD46     		mov	sp, r7
 1730              		.cfi_def_cfa_register 13
 1731              		@ sp needed
 1732 0028 5DF8047B 		ldr	r7, [sp], #4
 1733              		.cfi_restore 7
 1734              		.cfi_def_cfa_offset 0
 1735 002c 7047     		bx	lr
 1736              	.L82:
 1737 002e 00BF     		.align	2
 1738              	.L81:
 1739 0030 00800240 		.word	1073905664
 1740              		.cfi_endproc
 1741              	.LFE42:
 1743              		.section	.text.ETH_InitiatePauseControlFrame,"ax",%progbits
 1744              		.align	2
 1745              		.global	ETH_InitiatePauseControlFrame
 1746              		.thumb
 1747              		.thumb_func
 1749              	ETH_InitiatePauseControlFrame:
 1750              	.LFB43:
 832:../STM32_ETH_Driver/src/stm32_eth.c **** 
 833:../STM32_ETH_Driver/src/stm32_eth.c **** /**
 834:../STM32_ETH_Driver/src/stm32_eth.c ****   * @brief  Initiate a Pause Control Frame (Full-duplex only).
 835:../STM32_ETH_Driver/src/stm32_eth.c ****   * @param  None
 836:../STM32_ETH_Driver/src/stm32_eth.c ****   * @retval None
 837:../STM32_ETH_Driver/src/stm32_eth.c ****   */
 838:../STM32_ETH_Driver/src/stm32_eth.c **** void ETH_InitiatePauseControlFrame(void)  
 839:../STM32_ETH_Driver/src/stm32_eth.c **** { 
 1751              		.loc 1 839 0
 1752              		.cfi_startproc
 1753              		@ args = 0, pretend = 0, frame = 0
 1754              		@ frame_needed = 1, uses_anonymous_args = 0
 1755              		@ link register save eliminated.
 1756 0000 80B4     		push	{r7}
 1757              		.cfi_def_cfa_offset 4
 1758              		.cfi_offset 7, -4
 1759 0002 00AF     		add	r7, sp, #0
 1760              		.cfi_def_cfa_register 7
 840:../STM32_ETH_Driver/src/stm32_eth.c ****   /* When Set In full duplex MAC initiates pause control frame */
 841:../STM32_ETH_Driver/src/stm32_eth.c ****   ETH->MACFCR |= ETH_MACFCR_FCBBPA;  
 1761              		.loc 1 841 0
 1762 0004 044A     		ldr	r2, .L84
 1763 0006 044B     		ldr	r3, .L84
 1764 0008 9B69     		ldr	r3, [r3, #24]
 1765 000a 43F00103 		orr	r3, r3, #1
 1766 000e 9361     		str	r3, [r2, #24]
 842:../STM32_ETH_Driver/src/stm32_eth.c **** }
 1767              		.loc 1 842 0
 1768 0010 BD46     		mov	sp, r7
 1769              		.cfi_def_cfa_register 13
 1770              		@ sp needed
 1771 0012 5DF8047B 		ldr	r7, [sp], #4
 1772              		.cfi_restore 7
 1773              		.cfi_def_cfa_offset 0
 1774 0016 7047     		bx	lr
 1775              	.L85:
 1776              		.align	2
 1777              	.L84:
 1778 0018 00800240 		.word	1073905664
 1779              		.cfi_endproc
 1780              	.LFE43:
 1782              		.section	.text.ETH_BackPressureActivationCmd,"ax",%progbits
 1783              		.align	2
 1784              		.global	ETH_BackPressureActivationCmd
 1785              		.thumb
 1786              		.thumb_func
 1788              	ETH_BackPressureActivationCmd:
 1789              	.LFB44:
 843:../STM32_ETH_Driver/src/stm32_eth.c **** 
 844:../STM32_ETH_Driver/src/stm32_eth.c **** /**
 845:../STM32_ETH_Driver/src/stm32_eth.c ****   * @brief  Enables or disables the MAC BackPressure operation activation (Half-duplex only).
 846:../STM32_ETH_Driver/src/stm32_eth.c ****   * @param  NewState: new state of the MAC BackPressure operation activation.
 847:../STM32_ETH_Driver/src/stm32_eth.c ****   *   This parameter can be: ENABLE or DISABLE.
 848:../STM32_ETH_Driver/src/stm32_eth.c ****   * @retval None
 849:../STM32_ETH_Driver/src/stm32_eth.c ****   */
 850:../STM32_ETH_Driver/src/stm32_eth.c **** void ETH_BackPressureActivationCmd(FunctionalState NewState)   
 851:../STM32_ETH_Driver/src/stm32_eth.c **** { 
 1790              		.loc 1 851 0
 1791              		.cfi_startproc
 1792              		@ args = 0, pretend = 0, frame = 8
 1793              		@ frame_needed = 1, uses_anonymous_args = 0
 1794              		@ link register save eliminated.
 1795 0000 80B4     		push	{r7}
 1796              		.cfi_def_cfa_offset 4
 1797              		.cfi_offset 7, -4
 1798 0002 83B0     		sub	sp, sp, #12
 1799              		.cfi_def_cfa_offset 16
 1800 0004 00AF     		add	r7, sp, #0
 1801              		.cfi_def_cfa_register 7
 1802 0006 0346     		mov	r3, r0
 1803 0008 FB71     		strb	r3, [r7, #7]
 852:../STM32_ETH_Driver/src/stm32_eth.c ****   /* Check the parameters */
 853:../STM32_ETH_Driver/src/stm32_eth.c ****   assert_param(IS_FUNCTIONAL_STATE(NewState));
 854:../STM32_ETH_Driver/src/stm32_eth.c ****     
 855:../STM32_ETH_Driver/src/stm32_eth.c ****   if (NewState != DISABLE)
 1804              		.loc 1 855 0
 1805 000a FB79     		ldrb	r3, [r7, #7]	@ zero_extendqisi2
 1806 000c 002B     		cmp	r3, #0
 1807 000e 06D0     		beq	.L87
 856:../STM32_ETH_Driver/src/stm32_eth.c ****   {
 857:../STM32_ETH_Driver/src/stm32_eth.c ****     /* Activate the MAC BackPressure operation */
 858:../STM32_ETH_Driver/src/stm32_eth.c ****     /* In Half duplex: during backpressure, when the MAC receives a new frame,
 859:../STM32_ETH_Driver/src/stm32_eth.c ****     the transmitter starts sending a JAM pattern resulting in a collision */
 860:../STM32_ETH_Driver/src/stm32_eth.c ****     ETH->MACFCR |= ETH_MACFCR_FCBBPA; 
 1808              		.loc 1 860 0
 1809 0010 084A     		ldr	r2, .L89
 1810 0012 084B     		ldr	r3, .L89
 1811 0014 9B69     		ldr	r3, [r3, #24]
 1812 0016 43F00103 		orr	r3, r3, #1
 1813 001a 9361     		str	r3, [r2, #24]
 1814 001c 05E0     		b	.L86
 1815              	.L87:
 861:../STM32_ETH_Driver/src/stm32_eth.c ****   }
 862:../STM32_ETH_Driver/src/stm32_eth.c ****   else
 863:../STM32_ETH_Driver/src/stm32_eth.c ****   {
 864:../STM32_ETH_Driver/src/stm32_eth.c ****     /* Desactivate the MAC BackPressure operation */
 865:../STM32_ETH_Driver/src/stm32_eth.c ****     ETH->MACFCR &= ~ETH_MACFCR_FCBBPA; 
 1816              		.loc 1 865 0
 1817 001e 054A     		ldr	r2, .L89
 1818 0020 044B     		ldr	r3, .L89
 1819 0022 9B69     		ldr	r3, [r3, #24]
 1820 0024 23F00103 		bic	r3, r3, #1
 1821 0028 9361     		str	r3, [r2, #24]
 1822              	.L86:
 866:../STM32_ETH_Driver/src/stm32_eth.c ****   } 
 867:../STM32_ETH_Driver/src/stm32_eth.c **** }
 1823              		.loc 1 867 0
 1824 002a 0C37     		adds	r7, r7, #12
 1825              		.cfi_def_cfa_offset 4
 1826 002c BD46     		mov	sp, r7
 1827              		.cfi_def_cfa_register 13
 1828              		@ sp needed
 1829 002e 5DF8047B 		ldr	r7, [sp], #4
 1830              		.cfi_restore 7
 1831              		.cfi_def_cfa_offset 0
 1832 0032 7047     		bx	lr
 1833              	.L90:
 1834              		.align	2
 1835              	.L89:
 1836 0034 00800240 		.word	1073905664
 1837              		.cfi_endproc
 1838              	.LFE44:
 1840              		.section	.text.ETH_GetMACFlagStatus,"ax",%progbits
 1841              		.align	2
 1842              		.global	ETH_GetMACFlagStatus
 1843              		.thumb
 1844              		.thumb_func
 1846              	ETH_GetMACFlagStatus:
 1847              	.LFB45:
 868:../STM32_ETH_Driver/src/stm32_eth.c **** 
 869:../STM32_ETH_Driver/src/stm32_eth.c **** /**
 870:../STM32_ETH_Driver/src/stm32_eth.c ****   * @brief  Checks whether the specified ETHERNET MAC flag is set or not.
 871:../STM32_ETH_Driver/src/stm32_eth.c ****   * @param  ETH_MAC_FLAG: specifies the flag to check.
 872:../STM32_ETH_Driver/src/stm32_eth.c ****   *   This parameter can be one of the following values:
 873:../STM32_ETH_Driver/src/stm32_eth.c ****   *     @arg ETH_MAC_FLAG_TST  : Time stamp trigger flag   
 874:../STM32_ETH_Driver/src/stm32_eth.c ****   *     @arg ETH_MAC_FLAG_MMCT : MMC transmit flag  
 875:../STM32_ETH_Driver/src/stm32_eth.c ****   *     @arg ETH_MAC_FLAG_MMCR : MMC receive flag   
 876:../STM32_ETH_Driver/src/stm32_eth.c ****   *     @arg ETH_MAC_FLAG_MMC  : MMC flag  
 877:../STM32_ETH_Driver/src/stm32_eth.c ****   *     @arg ETH_MAC_FLAG_PMT  : PMT flag  
 878:../STM32_ETH_Driver/src/stm32_eth.c ****   * @retval The new state of ETHERNET MAC flag (SET or RESET).
 879:../STM32_ETH_Driver/src/stm32_eth.c ****   */
 880:../STM32_ETH_Driver/src/stm32_eth.c **** FlagStatus ETH_GetMACFlagStatus(uint32_t ETH_MAC_FLAG)
 881:../STM32_ETH_Driver/src/stm32_eth.c **** {
 1848              		.loc 1 881 0
 1849              		.cfi_startproc
 1850              		@ args = 0, pretend = 0, frame = 16
 1851              		@ frame_needed = 1, uses_anonymous_args = 0
 1852              		@ link register save eliminated.
 1853 0000 80B4     		push	{r7}
 1854              		.cfi_def_cfa_offset 4
 1855              		.cfi_offset 7, -4
 1856 0002 85B0     		sub	sp, sp, #20
 1857              		.cfi_def_cfa_offset 24
 1858 0004 00AF     		add	r7, sp, #0
 1859              		.cfi_def_cfa_register 7
 1860 0006 7860     		str	r0, [r7, #4]
 882:../STM32_ETH_Driver/src/stm32_eth.c ****   FlagStatus bitstatus = RESET;
 1861              		.loc 1 882 0
 1862 0008 0023     		movs	r3, #0
 1863 000a FB73     		strb	r3, [r7, #15]
 883:../STM32_ETH_Driver/src/stm32_eth.c ****   /* Check the parameters */
 884:../STM32_ETH_Driver/src/stm32_eth.c ****   assert_param(IS_ETH_MAC_GET_FLAG(ETH_MAC_FLAG)); 
 885:../STM32_ETH_Driver/src/stm32_eth.c ****   if ((ETH->MACSR & ETH_MAC_FLAG) != (uint32_t)RESET)
 1864              		.loc 1 885 0
 1865 000c 084B     		ldr	r3, .L95
 1866 000e 9A6B     		ldr	r2, [r3, #56]
 1867 0010 7B68     		ldr	r3, [r7, #4]
 1868 0012 1340     		ands	r3, r3, r2
 1869 0014 002B     		cmp	r3, #0
 1870 0016 02D0     		beq	.L92
 886:../STM32_ETH_Driver/src/stm32_eth.c ****   {
 887:../STM32_ETH_Driver/src/stm32_eth.c ****     bitstatus = SET;
 1871              		.loc 1 887 0
 1872 0018 0123     		movs	r3, #1
 1873 001a FB73     		strb	r3, [r7, #15]
 1874 001c 01E0     		b	.L93
 1875              	.L92:
 888:../STM32_ETH_Driver/src/stm32_eth.c ****   }
 889:../STM32_ETH_Driver/src/stm32_eth.c ****   else
 890:../STM32_ETH_Driver/src/stm32_eth.c ****   {
 891:../STM32_ETH_Driver/src/stm32_eth.c ****     bitstatus = RESET;
 1876              		.loc 1 891 0
 1877 001e 0023     		movs	r3, #0
 1878 0020 FB73     		strb	r3, [r7, #15]
 1879              	.L93:
 892:../STM32_ETH_Driver/src/stm32_eth.c ****   }
 893:../STM32_ETH_Driver/src/stm32_eth.c ****   return bitstatus;
 1880              		.loc 1 893 0
 1881 0022 FB7B     		ldrb	r3, [r7, #15]	@ zero_extendqisi2
 894:../STM32_ETH_Driver/src/stm32_eth.c **** }
 1882              		.loc 1 894 0
 1883 0024 1846     		mov	r0, r3
 1884 0026 1437     		adds	r7, r7, #20
 1885              		.cfi_def_cfa_offset 4
 1886 0028 BD46     		mov	sp, r7
 1887              		.cfi_def_cfa_register 13
 1888              		@ sp needed
 1889 002a 5DF8047B 		ldr	r7, [sp], #4
 1890              		.cfi_restore 7
 1891              		.cfi_def_cfa_offset 0
 1892 002e 7047     		bx	lr
 1893              	.L96:
 1894              		.align	2
 1895              	.L95:
 1896 0030 00800240 		.word	1073905664
 1897              		.cfi_endproc
 1898              	.LFE45:
 1900              		.section	.text.ETH_GetMACITStatus,"ax",%progbits
 1901              		.align	2
 1902              		.global	ETH_GetMACITStatus
 1903              		.thumb
 1904              		.thumb_func
 1906              	ETH_GetMACITStatus:
 1907              	.LFB46:
 895:../STM32_ETH_Driver/src/stm32_eth.c **** 
 896:../STM32_ETH_Driver/src/stm32_eth.c **** /**
 897:../STM32_ETH_Driver/src/stm32_eth.c ****   * @brief  Checks whether the specified ETHERNET MAC interrupt has occurred or not.
 898:../STM32_ETH_Driver/src/stm32_eth.c ****   * @param  ETH_MAC_IT: specifies the interrupt source to check.
 899:../STM32_ETH_Driver/src/stm32_eth.c ****   *   This parameter can be one of the following values:
 900:../STM32_ETH_Driver/src/stm32_eth.c ****   *     @arg ETH_MAC_IT_TST   : Time stamp trigger interrupt  
 901:../STM32_ETH_Driver/src/stm32_eth.c ****   *     @arg ETH_MAC_IT_MMCT : MMC transmit interrupt 
 902:../STM32_ETH_Driver/src/stm32_eth.c ****   *     @arg ETH_MAC_IT_MMCR : MMC receive interrupt  
 903:../STM32_ETH_Driver/src/stm32_eth.c ****   *     @arg ETH_MAC_IT_MMC  : MMC interrupt 
 904:../STM32_ETH_Driver/src/stm32_eth.c ****   *     @arg ETH_MAC_IT_PMT  : PMT interrupt 
 905:../STM32_ETH_Driver/src/stm32_eth.c ****   * @retval The new state of ETHERNET MAC interrupt (SET or RESET).
 906:../STM32_ETH_Driver/src/stm32_eth.c ****   */
 907:../STM32_ETH_Driver/src/stm32_eth.c **** ITStatus ETH_GetMACITStatus(uint32_t ETH_MAC_IT)
 908:../STM32_ETH_Driver/src/stm32_eth.c **** {
 1908              		.loc 1 908 0
 1909              		.cfi_startproc
 1910              		@ args = 0, pretend = 0, frame = 16
 1911              		@ frame_needed = 1, uses_anonymous_args = 0
 1912              		@ link register save eliminated.
 1913 0000 80B4     		push	{r7}
 1914              		.cfi_def_cfa_offset 4
 1915              		.cfi_offset 7, -4
 1916 0002 85B0     		sub	sp, sp, #20
 1917              		.cfi_def_cfa_offset 24
 1918 0004 00AF     		add	r7, sp, #0
 1919              		.cfi_def_cfa_register 7
 1920 0006 7860     		str	r0, [r7, #4]
 909:../STM32_ETH_Driver/src/stm32_eth.c ****   ITStatus bitstatus = RESET;
 1921              		.loc 1 909 0
 1922 0008 0023     		movs	r3, #0
 1923 000a FB73     		strb	r3, [r7, #15]
 910:../STM32_ETH_Driver/src/stm32_eth.c ****   /* Check the parameters */
 911:../STM32_ETH_Driver/src/stm32_eth.c ****   assert_param(IS_ETH_MAC_GET_IT(ETH_MAC_IT)); 
 912:../STM32_ETH_Driver/src/stm32_eth.c ****   if ((ETH->MACSR & ETH_MAC_IT) != (uint32_t)RESET)
 1924              		.loc 1 912 0
 1925 000c 084B     		ldr	r3, .L101
 1926 000e 9A6B     		ldr	r2, [r3, #56]
 1927 0010 7B68     		ldr	r3, [r7, #4]
 1928 0012 1340     		ands	r3, r3, r2
 1929 0014 002B     		cmp	r3, #0
 1930 0016 02D0     		beq	.L98
 913:../STM32_ETH_Driver/src/stm32_eth.c ****   {
 914:../STM32_ETH_Driver/src/stm32_eth.c ****     bitstatus = SET;
 1931              		.loc 1 914 0
 1932 0018 0123     		movs	r3, #1
 1933 001a FB73     		strb	r3, [r7, #15]
 1934 001c 01E0     		b	.L99
 1935              	.L98:
 915:../STM32_ETH_Driver/src/stm32_eth.c ****   }
 916:../STM32_ETH_Driver/src/stm32_eth.c ****   else
 917:../STM32_ETH_Driver/src/stm32_eth.c ****   {
 918:../STM32_ETH_Driver/src/stm32_eth.c ****     bitstatus = RESET;
 1936              		.loc 1 918 0
 1937 001e 0023     		movs	r3, #0
 1938 0020 FB73     		strb	r3, [r7, #15]
 1939              	.L99:
 919:../STM32_ETH_Driver/src/stm32_eth.c ****   }
 920:../STM32_ETH_Driver/src/stm32_eth.c ****   return bitstatus;
 1940              		.loc 1 920 0
 1941 0022 FB7B     		ldrb	r3, [r7, #15]	@ zero_extendqisi2
 921:../STM32_ETH_Driver/src/stm32_eth.c **** }
 1942              		.loc 1 921 0
 1943 0024 1846     		mov	r0, r3
 1944 0026 1437     		adds	r7, r7, #20
 1945              		.cfi_def_cfa_offset 4
 1946 0028 BD46     		mov	sp, r7
 1947              		.cfi_def_cfa_register 13
 1948              		@ sp needed
 1949 002a 5DF8047B 		ldr	r7, [sp], #4
 1950              		.cfi_restore 7
 1951              		.cfi_def_cfa_offset 0
 1952 002e 7047     		bx	lr
 1953              	.L102:
 1954              		.align	2
 1955              	.L101:
 1956 0030 00800240 		.word	1073905664
 1957              		.cfi_endproc
 1958              	.LFE46:
 1960              		.section	.text.ETH_MACITConfig,"ax",%progbits
 1961              		.align	2
 1962              		.global	ETH_MACITConfig
 1963              		.thumb
 1964              		.thumb_func
 1966              	ETH_MACITConfig:
 1967              	.LFB47:
 922:../STM32_ETH_Driver/src/stm32_eth.c **** 
 923:../STM32_ETH_Driver/src/stm32_eth.c **** /**
 924:../STM32_ETH_Driver/src/stm32_eth.c ****   * @brief  Enables or disables the specified ETHERNET MAC interrupts.
 925:../STM32_ETH_Driver/src/stm32_eth.c ****   * @param  ETH_MAC_IT: specifies the ETHERNET MAC interrupt sources to be
 926:../STM32_ETH_Driver/src/stm32_eth.c ****   *   enabled or disabled.
 927:../STM32_ETH_Driver/src/stm32_eth.c ****   *   This parameter can be any combination of the following values:
 928:../STM32_ETH_Driver/src/stm32_eth.c ****   *     @arg ETH_MAC_IT_TST : Time stamp trigger interrupt 
 929:../STM32_ETH_Driver/src/stm32_eth.c ****   *     @arg ETH_MAC_IT_PMT : PMT interrupt 
 930:../STM32_ETH_Driver/src/stm32_eth.c ****   * @param  NewState: new state of the specified ETHERNET MAC interrupts.
 931:../STM32_ETH_Driver/src/stm32_eth.c ****   *   This parameter can be: ENABLE or DISABLE.
 932:../STM32_ETH_Driver/src/stm32_eth.c ****   * @retval None
 933:../STM32_ETH_Driver/src/stm32_eth.c ****   */
 934:../STM32_ETH_Driver/src/stm32_eth.c **** void ETH_MACITConfig(uint32_t ETH_MAC_IT, FunctionalState NewState)
 935:../STM32_ETH_Driver/src/stm32_eth.c **** {
 1968              		.loc 1 935 0
 1969              		.cfi_startproc
 1970              		@ args = 0, pretend = 0, frame = 8
 1971              		@ frame_needed = 1, uses_anonymous_args = 0
 1972              		@ link register save eliminated.
 1973 0000 80B4     		push	{r7}
 1974              		.cfi_def_cfa_offset 4
 1975              		.cfi_offset 7, -4
 1976 0002 83B0     		sub	sp, sp, #12
 1977              		.cfi_def_cfa_offset 16
 1978 0004 00AF     		add	r7, sp, #0
 1979              		.cfi_def_cfa_register 7
 1980 0006 7860     		str	r0, [r7, #4]
 1981 0008 0B46     		mov	r3, r1
 1982 000a FB70     		strb	r3, [r7, #3]
 936:../STM32_ETH_Driver/src/stm32_eth.c ****   /* Check the parameters */
 937:../STM32_ETH_Driver/src/stm32_eth.c ****   assert_param(IS_ETH_MAC_IT(ETH_MAC_IT));
 938:../STM32_ETH_Driver/src/stm32_eth.c ****   assert_param(IS_FUNCTIONAL_STATE(NewState));  
 939:../STM32_ETH_Driver/src/stm32_eth.c ****   
 940:../STM32_ETH_Driver/src/stm32_eth.c ****   if (NewState != DISABLE)
 1983              		.loc 1 940 0
 1984 000c FB78     		ldrb	r3, [r7, #3]	@ zero_extendqisi2
 1985 000e 002B     		cmp	r3, #0
 1986 0010 07D0     		beq	.L104
 941:../STM32_ETH_Driver/src/stm32_eth.c ****   {
 942:../STM32_ETH_Driver/src/stm32_eth.c ****     /* Enable the selected ETHERNET MAC interrupts */
 943:../STM32_ETH_Driver/src/stm32_eth.c ****     ETH->MACIMR &= (~(uint32_t)ETH_MAC_IT);
 1987              		.loc 1 943 0
 1988 0012 0949     		ldr	r1, .L106
 1989 0014 084B     		ldr	r3, .L106
 1990 0016 DA6B     		ldr	r2, [r3, #60]
 1991 0018 7B68     		ldr	r3, [r7, #4]
 1992 001a DB43     		mvns	r3, r3
 1993 001c 1340     		ands	r3, r3, r2
 1994 001e CB63     		str	r3, [r1, #60]
 1995 0020 05E0     		b	.L103
 1996              	.L104:
 944:../STM32_ETH_Driver/src/stm32_eth.c ****   }
 945:../STM32_ETH_Driver/src/stm32_eth.c ****   else
 946:../STM32_ETH_Driver/src/stm32_eth.c ****   {
 947:../STM32_ETH_Driver/src/stm32_eth.c ****     /* Disable the selected ETHERNET MAC interrupts */
 948:../STM32_ETH_Driver/src/stm32_eth.c ****     ETH->MACIMR |= ETH_MAC_IT;
 1997              		.loc 1 948 0
 1998 0022 0549     		ldr	r1, .L106
 1999 0024 044B     		ldr	r3, .L106
 2000 0026 DA6B     		ldr	r2, [r3, #60]
 2001 0028 7B68     		ldr	r3, [r7, #4]
 2002 002a 1343     		orrs	r3, r3, r2
 2003 002c CB63     		str	r3, [r1, #60]
 2004              	.L103:
 949:../STM32_ETH_Driver/src/stm32_eth.c ****   }
 950:../STM32_ETH_Driver/src/stm32_eth.c **** }
 2005              		.loc 1 950 0
 2006 002e 0C37     		adds	r7, r7, #12
 2007              		.cfi_def_cfa_offset 4
 2008 0030 BD46     		mov	sp, r7
 2009              		.cfi_def_cfa_register 13
 2010              		@ sp needed
 2011 0032 5DF8047B 		ldr	r7, [sp], #4
 2012              		.cfi_restore 7
 2013              		.cfi_def_cfa_offset 0
 2014 0036 7047     		bx	lr
 2015              	.L107:
 2016              		.align	2
 2017              	.L106:
 2018 0038 00800240 		.word	1073905664
 2019              		.cfi_endproc
 2020              	.LFE47:
 2022              		.section	.text.ETH_MACAddressConfig,"ax",%progbits
 2023              		.align	2
 2024              		.global	ETH_MACAddressConfig
 2025              		.thumb
 2026              		.thumb_func
 2028              	ETH_MACAddressConfig:
 2029              	.LFB48:
 951:../STM32_ETH_Driver/src/stm32_eth.c **** 
 952:../STM32_ETH_Driver/src/stm32_eth.c **** /**
 953:../STM32_ETH_Driver/src/stm32_eth.c ****   * @brief  Configures the selected MAC address.
 954:../STM32_ETH_Driver/src/stm32_eth.c ****   * @param  MacAddr: The MAC addres to configure.
 955:../STM32_ETH_Driver/src/stm32_eth.c ****   *   This parameter can be one of the following values:
 956:../STM32_ETH_Driver/src/stm32_eth.c ****   *     @arg ETH_MAC_Address0 : MAC Address0 
 957:../STM32_ETH_Driver/src/stm32_eth.c ****   *     @arg ETH_MAC_Address1 : MAC Address1 
 958:../STM32_ETH_Driver/src/stm32_eth.c ****   *     @arg ETH_MAC_Address2 : MAC Address2
 959:../STM32_ETH_Driver/src/stm32_eth.c ****   *     @arg ETH_MAC_Address3 : MAC Address3
 960:../STM32_ETH_Driver/src/stm32_eth.c ****   * @param  Addr: Pointer on MAC address buffer data (6 bytes).
 961:../STM32_ETH_Driver/src/stm32_eth.c ****   * @retval None
 962:../STM32_ETH_Driver/src/stm32_eth.c ****   */
 963:../STM32_ETH_Driver/src/stm32_eth.c **** void ETH_MACAddressConfig(uint32_t MacAddr, uint8_t *Addr)
 964:../STM32_ETH_Driver/src/stm32_eth.c **** {
 2030              		.loc 1 964 0
 2031              		.cfi_startproc
 2032              		@ args = 0, pretend = 0, frame = 16
 2033              		@ frame_needed = 1, uses_anonymous_args = 0
 2034              		@ link register save eliminated.
 2035 0000 80B4     		push	{r7}
 2036              		.cfi_def_cfa_offset 4
 2037              		.cfi_offset 7, -4
 2038 0002 85B0     		sub	sp, sp, #20
 2039              		.cfi_def_cfa_offset 24
 2040 0004 00AF     		add	r7, sp, #0
 2041              		.cfi_def_cfa_register 7
 2042 0006 7860     		str	r0, [r7, #4]
 2043 0008 3960     		str	r1, [r7]
 965:../STM32_ETH_Driver/src/stm32_eth.c ****   uint32_t tmpreg;
 966:../STM32_ETH_Driver/src/stm32_eth.c ****   /* Check the parameters */
 967:../STM32_ETH_Driver/src/stm32_eth.c ****   assert_param(IS_ETH_MAC_ADDRESS0123(MacAddr));
 968:../STM32_ETH_Driver/src/stm32_eth.c ****   
 969:../STM32_ETH_Driver/src/stm32_eth.c ****   /* Calculate the selectecd MAC address high register */
 970:../STM32_ETH_Driver/src/stm32_eth.c ****   tmpreg = ((uint32_t)Addr[5] << 8) | (uint32_t)Addr[4];
 2044              		.loc 1 970 0
 2045 000a 3B68     		ldr	r3, [r7]
 2046 000c 0533     		adds	r3, r3, #5
 2047 000e 1B78     		ldrb	r3, [r3]	@ zero_extendqisi2
 2048 0010 1B02     		lsls	r3, r3, #8
 2049 0012 3A68     		ldr	r2, [r7]
 2050 0014 0432     		adds	r2, r2, #4
 2051 0016 1278     		ldrb	r2, [r2]	@ zero_extendqisi2
 2052 0018 1343     		orrs	r3, r3, r2
 2053 001a FB60     		str	r3, [r7, #12]
 971:../STM32_ETH_Driver/src/stm32_eth.c ****   /* Load the selectecd MAC address high register */
 972:../STM32_ETH_Driver/src/stm32_eth.c ****   (*(__IO uint32_t *) (ETH_MAC_ADDR_HBASE + MacAddr)) = tmpreg;
 2054              		.loc 1 972 0
 2055 001c 7A68     		ldr	r2, [r7, #4]
 2056 001e 114B     		ldr	r3, .L109
 2057 0020 1344     		add	r3, r3, r2
 2058 0022 1A46     		mov	r2, r3
 2059 0024 FB68     		ldr	r3, [r7, #12]
 2060 0026 1360     		str	r3, [r2]
 973:../STM32_ETH_Driver/src/stm32_eth.c ****   /* Calculate the selectecd MAC address low register */
 974:../STM32_ETH_Driver/src/stm32_eth.c ****   tmpreg = ((uint32_t)Addr[3] << 24) | ((uint32_t)Addr[2] << 16) | ((uint32_t)Addr[1] << 8) | Addr[
 2061              		.loc 1 974 0
 2062 0028 3B68     		ldr	r3, [r7]
 2063 002a 0333     		adds	r3, r3, #3
 2064 002c 1B78     		ldrb	r3, [r3]	@ zero_extendqisi2
 2065 002e 1A06     		lsls	r2, r3, #24
 2066 0030 3B68     		ldr	r3, [r7]
 2067 0032 0233     		adds	r3, r3, #2
 2068 0034 1B78     		ldrb	r3, [r3]	@ zero_extendqisi2
 2069 0036 1B04     		lsls	r3, r3, #16
 2070 0038 1A43     		orrs	r2, r2, r3
 2071 003a 3B68     		ldr	r3, [r7]
 2072 003c 0133     		adds	r3, r3, #1
 2073 003e 1B78     		ldrb	r3, [r3]	@ zero_extendqisi2
 2074 0040 1B02     		lsls	r3, r3, #8
 2075 0042 1343     		orrs	r3, r3, r2
 2076 0044 3A68     		ldr	r2, [r7]
 2077 0046 1278     		ldrb	r2, [r2]	@ zero_extendqisi2
 2078 0048 1343     		orrs	r3, r3, r2
 2079 004a FB60     		str	r3, [r7, #12]
 975:../STM32_ETH_Driver/src/stm32_eth.c ****  
 976:../STM32_ETH_Driver/src/stm32_eth.c ****   /* Load the selectecd MAC address low register */
 977:../STM32_ETH_Driver/src/stm32_eth.c ****   (*(__IO uint32_t *) (ETH_MAC_ADDR_LBASE + MacAddr)) = tmpreg;
 2080              		.loc 1 977 0
 2081 004c 7A68     		ldr	r2, [r7, #4]
 2082 004e 064B     		ldr	r3, .L109+4
 2083 0050 1344     		add	r3, r3, r2
 2084 0052 1A46     		mov	r2, r3
 2085 0054 FB68     		ldr	r3, [r7, #12]
 2086 0056 1360     		str	r3, [r2]
 978:../STM32_ETH_Driver/src/stm32_eth.c **** }
 2087              		.loc 1 978 0
 2088 0058 1437     		adds	r7, r7, #20
 2089              		.cfi_def_cfa_offset 4
 2090 005a BD46     		mov	sp, r7
 2091              		.cfi_def_cfa_register 13
 2092              		@ sp needed
 2093 005c 5DF8047B 		ldr	r7, [sp], #4
 2094              		.cfi_restore 7
 2095              		.cfi_def_cfa_offset 0
 2096 0060 7047     		bx	lr
 2097              	.L110:
 2098 0062 00BF     		.align	2
 2099              	.L109:
 2100 0064 40800240 		.word	1073905728
 2101 0068 44800240 		.word	1073905732
 2102              		.cfi_endproc
 2103              	.LFE48:
 2105              		.section	.text.ETH_GetMACAddress,"ax",%progbits
 2106              		.align	2
 2107              		.global	ETH_GetMACAddress
 2108              		.thumb
 2109              		.thumb_func
 2111              	ETH_GetMACAddress:
 2112              	.LFB49:
 979:../STM32_ETH_Driver/src/stm32_eth.c **** 
 980:../STM32_ETH_Driver/src/stm32_eth.c **** /**
 981:../STM32_ETH_Driver/src/stm32_eth.c ****   * @brief  Get the selected MAC address.
 982:../STM32_ETH_Driver/src/stm32_eth.c ****   * @param  MacAddr: The MAC addres to return.
 983:../STM32_ETH_Driver/src/stm32_eth.c ****   *   This parameter can be one of the following values:
 984:../STM32_ETH_Driver/src/stm32_eth.c ****   *     @arg ETH_MAC_Address0 : MAC Address0 
 985:../STM32_ETH_Driver/src/stm32_eth.c ****   *     @arg ETH_MAC_Address1 : MAC Address1 
 986:../STM32_ETH_Driver/src/stm32_eth.c ****   *     @arg ETH_MAC_Address2 : MAC Address2
 987:../STM32_ETH_Driver/src/stm32_eth.c ****   *     @arg ETH_MAC_Address3 : MAC Address3
 988:../STM32_ETH_Driver/src/stm32_eth.c ****   * @param  Addr: Pointer on MAC address buffer data (6 bytes).
 989:../STM32_ETH_Driver/src/stm32_eth.c ****   * @retval None
 990:../STM32_ETH_Driver/src/stm32_eth.c ****   */
 991:../STM32_ETH_Driver/src/stm32_eth.c **** void ETH_GetMACAddress(uint32_t MacAddr, uint8_t *Addr)
 992:../STM32_ETH_Driver/src/stm32_eth.c **** {
 2113              		.loc 1 992 0
 2114              		.cfi_startproc
 2115              		@ args = 0, pretend = 0, frame = 16
 2116              		@ frame_needed = 1, uses_anonymous_args = 0
 2117              		@ link register save eliminated.
 2118 0000 80B4     		push	{r7}
 2119              		.cfi_def_cfa_offset 4
 2120              		.cfi_offset 7, -4
 2121 0002 85B0     		sub	sp, sp, #20
 2122              		.cfi_def_cfa_offset 24
 2123 0004 00AF     		add	r7, sp, #0
 2124              		.cfi_def_cfa_register 7
 2125 0006 7860     		str	r0, [r7, #4]
 2126 0008 3960     		str	r1, [r7]
 993:../STM32_ETH_Driver/src/stm32_eth.c ****   uint32_t tmpreg;
 994:../STM32_ETH_Driver/src/stm32_eth.c ****   /* Check the parameters */
 995:../STM32_ETH_Driver/src/stm32_eth.c ****   assert_param(IS_ETH_MAC_ADDRESS0123(MacAddr));
 996:../STM32_ETH_Driver/src/stm32_eth.c ****   
 997:../STM32_ETH_Driver/src/stm32_eth.c ****   /* Get the selectecd MAC address high register */
 998:../STM32_ETH_Driver/src/stm32_eth.c ****   tmpreg =(*(__IO uint32_t *) (ETH_MAC_ADDR_HBASE + MacAddr));
 2127              		.loc 1 998 0
 2128 000a 7A68     		ldr	r2, [r7, #4]
 2129 000c 174B     		ldr	r3, .L112
 2130 000e 1344     		add	r3, r3, r2
 2131 0010 1B68     		ldr	r3, [r3]
 2132 0012 FB60     		str	r3, [r7, #12]
 999:../STM32_ETH_Driver/src/stm32_eth.c ****  
1000:../STM32_ETH_Driver/src/stm32_eth.c ****   /* Calculate the selectecd MAC address buffer */
1001:../STM32_ETH_Driver/src/stm32_eth.c ****   Addr[5] = ((tmpreg >> 8) & (uint8_t)0xFF);
 2133              		.loc 1 1001 0
 2134 0014 3B68     		ldr	r3, [r7]
 2135 0016 0533     		adds	r3, r3, #5
 2136 0018 FA68     		ldr	r2, [r7, #12]
 2137 001a 120A     		lsrs	r2, r2, #8
 2138 001c D2B2     		uxtb	r2, r2
 2139 001e 1A70     		strb	r2, [r3]
1002:../STM32_ETH_Driver/src/stm32_eth.c ****   Addr[4] = (tmpreg & (uint8_t)0xFF);
 2140              		.loc 1 1002 0
 2141 0020 3B68     		ldr	r3, [r7]
 2142 0022 0433     		adds	r3, r3, #4
 2143 0024 FA68     		ldr	r2, [r7, #12]
 2144 0026 D2B2     		uxtb	r2, r2
 2145 0028 1A70     		strb	r2, [r3]
1003:../STM32_ETH_Driver/src/stm32_eth.c ****   /* Load the selectecd MAC address low register */
1004:../STM32_ETH_Driver/src/stm32_eth.c ****   tmpreg =(*(__IO uint32_t *) (ETH_MAC_ADDR_LBASE + MacAddr));
 2146              		.loc 1 1004 0
 2147 002a 7A68     		ldr	r2, [r7, #4]
 2148 002c 104B     		ldr	r3, .L112+4
 2149 002e 1344     		add	r3, r3, r2
 2150 0030 1B68     		ldr	r3, [r3]
 2151 0032 FB60     		str	r3, [r7, #12]
1005:../STM32_ETH_Driver/src/stm32_eth.c ****   /* Calculate the selectecd MAC address buffer */
1006:../STM32_ETH_Driver/src/stm32_eth.c ****   Addr[3] = ((tmpreg >> 24) & (uint8_t)0xFF);
 2152              		.loc 1 1006 0
 2153 0034 3B68     		ldr	r3, [r7]
 2154 0036 0333     		adds	r3, r3, #3
 2155 0038 FA68     		ldr	r2, [r7, #12]
 2156 003a 120E     		lsrs	r2, r2, #24
 2157 003c D2B2     		uxtb	r2, r2
 2158 003e 1A70     		strb	r2, [r3]
1007:../STM32_ETH_Driver/src/stm32_eth.c ****   Addr[2] = ((tmpreg >> 16) & (uint8_t)0xFF);
 2159              		.loc 1 1007 0
 2160 0040 3B68     		ldr	r3, [r7]
 2161 0042 0233     		adds	r3, r3, #2
 2162 0044 FA68     		ldr	r2, [r7, #12]
 2163 0046 120C     		lsrs	r2, r2, #16
 2164 0048 D2B2     		uxtb	r2, r2
 2165 004a 1A70     		strb	r2, [r3]
1008:../STM32_ETH_Driver/src/stm32_eth.c ****   Addr[1] = ((tmpreg >> 8 ) & (uint8_t)0xFF);
 2166              		.loc 1 1008 0
 2167 004c 3B68     		ldr	r3, [r7]
 2168 004e 0133     		adds	r3, r3, #1
 2169 0050 FA68     		ldr	r2, [r7, #12]
 2170 0052 120A     		lsrs	r2, r2, #8
 2171 0054 D2B2     		uxtb	r2, r2
 2172 0056 1A70     		strb	r2, [r3]
1009:../STM32_ETH_Driver/src/stm32_eth.c ****   Addr[0] = (tmpreg & (uint8_t)0xFF);
 2173              		.loc 1 1009 0
 2174 0058 FB68     		ldr	r3, [r7, #12]
 2175 005a DAB2     		uxtb	r2, r3
 2176 005c 3B68     		ldr	r3, [r7]
 2177 005e 1A70     		strb	r2, [r3]
1010:../STM32_ETH_Driver/src/stm32_eth.c **** }
 2178              		.loc 1 1010 0
 2179 0060 1437     		adds	r7, r7, #20
 2180              		.cfi_def_cfa_offset 4
 2181 0062 BD46     		mov	sp, r7
 2182              		.cfi_def_cfa_register 13
 2183              		@ sp needed
 2184 0064 5DF8047B 		ldr	r7, [sp], #4
 2185              		.cfi_restore 7
 2186              		.cfi_def_cfa_offset 0
 2187 0068 7047     		bx	lr
 2188              	.L113:
 2189 006a 00BF     		.align	2
 2190              	.L112:
 2191 006c 40800240 		.word	1073905728
 2192 0070 44800240 		.word	1073905732
 2193              		.cfi_endproc
 2194              	.LFE49:
 2196              		.section	.text.ETH_MACAddressPerfectFilterCmd,"ax",%progbits
 2197              		.align	2
 2198              		.global	ETH_MACAddressPerfectFilterCmd
 2199              		.thumb
 2200              		.thumb_func
 2202              	ETH_MACAddressPerfectFilterCmd:
 2203              	.LFB50:
1011:../STM32_ETH_Driver/src/stm32_eth.c **** 
1012:../STM32_ETH_Driver/src/stm32_eth.c **** /**
1013:../STM32_ETH_Driver/src/stm32_eth.c ****   * @brief  Enables or disables the Address filter module uses the specified
1014:../STM32_ETH_Driver/src/stm32_eth.c ****   *   ETHERNET MAC address for perfect filtering 
1015:../STM32_ETH_Driver/src/stm32_eth.c ****   * @param  MacAddr: specifies the ETHERNET MAC address to be used for prfect filtering.
1016:../STM32_ETH_Driver/src/stm32_eth.c ****   *   This parameter can be one of the following values: 
1017:../STM32_ETH_Driver/src/stm32_eth.c ****   *     @arg ETH_MAC_Address1 : MAC Address1 
1018:../STM32_ETH_Driver/src/stm32_eth.c ****   *     @arg ETH_MAC_Address2 : MAC Address2
1019:../STM32_ETH_Driver/src/stm32_eth.c ****   *     @arg ETH_MAC_Address3 : MAC Address3
1020:../STM32_ETH_Driver/src/stm32_eth.c ****   * @param  NewState: new state of the specified ETHERNET MAC address use.
1021:../STM32_ETH_Driver/src/stm32_eth.c ****   *   This parameter can be: ENABLE or DISABLE.
1022:../STM32_ETH_Driver/src/stm32_eth.c ****   * @retval None
1023:../STM32_ETH_Driver/src/stm32_eth.c ****   */
1024:../STM32_ETH_Driver/src/stm32_eth.c **** void ETH_MACAddressPerfectFilterCmd(uint32_t MacAddr, FunctionalState NewState)
1025:../STM32_ETH_Driver/src/stm32_eth.c **** {
 2204              		.loc 1 1025 0
 2205              		.cfi_startproc
 2206              		@ args = 0, pretend = 0, frame = 8
 2207              		@ frame_needed = 1, uses_anonymous_args = 0
 2208              		@ link register save eliminated.
 2209 0000 80B4     		push	{r7}
 2210              		.cfi_def_cfa_offset 4
 2211              		.cfi_offset 7, -4
 2212 0002 83B0     		sub	sp, sp, #12
 2213              		.cfi_def_cfa_offset 16
 2214 0004 00AF     		add	r7, sp, #0
 2215              		.cfi_def_cfa_register 7
 2216 0006 7860     		str	r0, [r7, #4]
 2217 0008 0B46     		mov	r3, r1
 2218 000a FB70     		strb	r3, [r7, #3]
1026:../STM32_ETH_Driver/src/stm32_eth.c ****   /* Check the parameters */
1027:../STM32_ETH_Driver/src/stm32_eth.c ****   assert_param(IS_ETH_MAC_ADDRESS123(MacAddr));
1028:../STM32_ETH_Driver/src/stm32_eth.c ****   assert_param(IS_FUNCTIONAL_STATE(NewState));
1029:../STM32_ETH_Driver/src/stm32_eth.c ****     
1030:../STM32_ETH_Driver/src/stm32_eth.c ****   if (NewState != DISABLE)
 2219              		.loc 1 1030 0
 2220 000c FB78     		ldrb	r3, [r7, #3]	@ zero_extendqisi2
 2221 000e 002B     		cmp	r3, #0
 2222 0010 0BD0     		beq	.L115
1031:../STM32_ETH_Driver/src/stm32_eth.c ****   {
1032:../STM32_ETH_Driver/src/stm32_eth.c ****     /* Enable the selected ETHERNET MAC address for perfect filtering */
1033:../STM32_ETH_Driver/src/stm32_eth.c ****     (*(__IO uint32_t *) (ETH_MAC_ADDR_HBASE + MacAddr)) |= ETH_MACA1HR_AE;
 2223              		.loc 1 1033 0
 2224 0012 7A68     		ldr	r2, [r7, #4]
 2225 0014 0D4B     		ldr	r3, .L117
 2226 0016 1344     		add	r3, r3, r2
 2227 0018 1946     		mov	r1, r3
 2228 001a 7A68     		ldr	r2, [r7, #4]
 2229 001c 0B4B     		ldr	r3, .L117
 2230 001e 1344     		add	r3, r3, r2
 2231 0020 1B68     		ldr	r3, [r3]
 2232 0022 43F00043 		orr	r3, r3, #-2147483648
 2233 0026 0B60     		str	r3, [r1]
 2234 0028 0AE0     		b	.L114
 2235              	.L115:
1034:../STM32_ETH_Driver/src/stm32_eth.c ****   }
1035:../STM32_ETH_Driver/src/stm32_eth.c ****   else
1036:../STM32_ETH_Driver/src/stm32_eth.c ****   {
1037:../STM32_ETH_Driver/src/stm32_eth.c ****     /* Disable the selected ETHERNET MAC address for perfect filtering */
1038:../STM32_ETH_Driver/src/stm32_eth.c ****     (*(__IO uint32_t *) (ETH_MAC_ADDR_HBASE + MacAddr)) &=(~(uint32_t)ETH_MACA1HR_AE);
 2236              		.loc 1 1038 0
 2237 002a 7A68     		ldr	r2, [r7, #4]
 2238 002c 074B     		ldr	r3, .L117
 2239 002e 1344     		add	r3, r3, r2
 2240 0030 1946     		mov	r1, r3
 2241 0032 7A68     		ldr	r2, [r7, #4]
 2242 0034 054B     		ldr	r3, .L117
 2243 0036 1344     		add	r3, r3, r2
 2244 0038 1B68     		ldr	r3, [r3]
 2245 003a 23F00043 		bic	r3, r3, #-2147483648
 2246 003e 0B60     		str	r3, [r1]
 2247              	.L114:
1039:../STM32_ETH_Driver/src/stm32_eth.c ****   }
1040:../STM32_ETH_Driver/src/stm32_eth.c **** }
 2248              		.loc 1 1040 0
 2249 0040 0C37     		adds	r7, r7, #12
 2250              		.cfi_def_cfa_offset 4
 2251 0042 BD46     		mov	sp, r7
 2252              		.cfi_def_cfa_register 13
 2253              		@ sp needed
 2254 0044 5DF8047B 		ldr	r7, [sp], #4
 2255              		.cfi_restore 7
 2256              		.cfi_def_cfa_offset 0
 2257 0048 7047     		bx	lr
 2258              	.L118:
 2259 004a 00BF     		.align	2
 2260              	.L117:
 2261 004c 40800240 		.word	1073905728
 2262              		.cfi_endproc
 2263              	.LFE50:
 2265              		.section	.text.ETH_MACAddressFilterConfig,"ax",%progbits
 2266              		.align	2
 2267              		.global	ETH_MACAddressFilterConfig
 2268              		.thumb
 2269              		.thumb_func
 2271              	ETH_MACAddressFilterConfig:
 2272              	.LFB51:
1041:../STM32_ETH_Driver/src/stm32_eth.c **** 
1042:../STM32_ETH_Driver/src/stm32_eth.c **** /**
1043:../STM32_ETH_Driver/src/stm32_eth.c ****   * @brief  Set the filter type for the specified ETHERNET MAC address 
1044:../STM32_ETH_Driver/src/stm32_eth.c ****   * @param  MacAddr: specifies the ETHERNET MAC address 
1045:../STM32_ETH_Driver/src/stm32_eth.c ****   *   This parameter can be one of the following values: 
1046:../STM32_ETH_Driver/src/stm32_eth.c ****   *     @arg ETH_MAC_Address1 : MAC Address1 
1047:../STM32_ETH_Driver/src/stm32_eth.c ****   *     @arg ETH_MAC_Address2 : MAC Address2
1048:../STM32_ETH_Driver/src/stm32_eth.c ****   *     @arg ETH_MAC_Address3 : MAC Address3
1049:../STM32_ETH_Driver/src/stm32_eth.c ****   * @param  Filter: specifies the used frame received field for comparaison 
1050:../STM32_ETH_Driver/src/stm32_eth.c ****   *   This parameter can be one of the following values: 
1051:../STM32_ETH_Driver/src/stm32_eth.c ****   *     @arg ETH_MAC_AddressFilter_SA : MAC Address is used to compare with the
1052:../STM32_ETH_Driver/src/stm32_eth.c ****   *                                     SA fields of the received frame.
1053:../STM32_ETH_Driver/src/stm32_eth.c ****   *     @arg ETH_MAC_AddressFilter_DA : MAC Address is used to compare with the
1054:../STM32_ETH_Driver/src/stm32_eth.c ****   *                                     DA fields of the received frame.
1055:../STM32_ETH_Driver/src/stm32_eth.c ****   * @retval None
1056:../STM32_ETH_Driver/src/stm32_eth.c ****   */
1057:../STM32_ETH_Driver/src/stm32_eth.c **** void ETH_MACAddressFilterConfig(uint32_t MacAddr, uint32_t Filter)
1058:../STM32_ETH_Driver/src/stm32_eth.c **** {
 2273              		.loc 1 1058 0
 2274              		.cfi_startproc
 2275              		@ args = 0, pretend = 0, frame = 8
 2276              		@ frame_needed = 1, uses_anonymous_args = 0
 2277              		@ link register save eliminated.
 2278 0000 80B4     		push	{r7}
 2279              		.cfi_def_cfa_offset 4
 2280              		.cfi_offset 7, -4
 2281 0002 83B0     		sub	sp, sp, #12
 2282              		.cfi_def_cfa_offset 16
 2283 0004 00AF     		add	r7, sp, #0
 2284              		.cfi_def_cfa_register 7
 2285 0006 7860     		str	r0, [r7, #4]
 2286 0008 3960     		str	r1, [r7]
1059:../STM32_ETH_Driver/src/stm32_eth.c ****   /* Check the parameters */
1060:../STM32_ETH_Driver/src/stm32_eth.c ****   assert_param(IS_ETH_MAC_ADDRESS123(MacAddr));
1061:../STM32_ETH_Driver/src/stm32_eth.c ****   assert_param(IS_ETH_MAC_ADDRESS_FILTER(Filter));
1062:../STM32_ETH_Driver/src/stm32_eth.c ****   
1063:../STM32_ETH_Driver/src/stm32_eth.c ****   if (Filter != ETH_MAC_AddressFilter_DA)
 2287              		.loc 1 1063 0
 2288 000a 3B68     		ldr	r3, [r7]
 2289 000c 082B     		cmp	r3, #8
 2290 000e 0BD0     		beq	.L120
1064:../STM32_ETH_Driver/src/stm32_eth.c ****   {
1065:../STM32_ETH_Driver/src/stm32_eth.c ****     /* The selected ETHERNET MAC address is used to compare with the SA fields of the
1066:../STM32_ETH_Driver/src/stm32_eth.c ****        received frame. */
1067:../STM32_ETH_Driver/src/stm32_eth.c ****     (*(__IO uint32_t *) (ETH_MAC_ADDR_HBASE + MacAddr)) |= ETH_MACA1HR_SA;
 2291              		.loc 1 1067 0
 2292 0010 7A68     		ldr	r2, [r7, #4]
 2293 0012 0D4B     		ldr	r3, .L122
 2294 0014 1344     		add	r3, r3, r2
 2295 0016 1946     		mov	r1, r3
 2296 0018 7A68     		ldr	r2, [r7, #4]
 2297 001a 0B4B     		ldr	r3, .L122
 2298 001c 1344     		add	r3, r3, r2
 2299 001e 1B68     		ldr	r3, [r3]
 2300 0020 43F08043 		orr	r3, r3, #1073741824
 2301 0024 0B60     		str	r3, [r1]
 2302 0026 0AE0     		b	.L119
 2303              	.L120:
1068:../STM32_ETH_Driver/src/stm32_eth.c ****   }
1069:../STM32_ETH_Driver/src/stm32_eth.c ****   else
1070:../STM32_ETH_Driver/src/stm32_eth.c ****   {
1071:../STM32_ETH_Driver/src/stm32_eth.c ****     /* The selected ETHERNET MAC address is used to compare with the DA fields of the
1072:../STM32_ETH_Driver/src/stm32_eth.c ****        received frame. */
1073:../STM32_ETH_Driver/src/stm32_eth.c ****     (*(__IO uint32_t *) (ETH_MAC_ADDR_HBASE + MacAddr)) &=(~(uint32_t)ETH_MACA1HR_SA);
 2304              		.loc 1 1073 0
 2305 0028 7A68     		ldr	r2, [r7, #4]
 2306 002a 074B     		ldr	r3, .L122
 2307 002c 1344     		add	r3, r3, r2
 2308 002e 1946     		mov	r1, r3
 2309 0030 7A68     		ldr	r2, [r7, #4]
 2310 0032 054B     		ldr	r3, .L122
 2311 0034 1344     		add	r3, r3, r2
 2312 0036 1B68     		ldr	r3, [r3]
 2313 0038 23F08043 		bic	r3, r3, #1073741824
 2314 003c 0B60     		str	r3, [r1]
 2315              	.L119:
1074:../STM32_ETH_Driver/src/stm32_eth.c ****   }
1075:../STM32_ETH_Driver/src/stm32_eth.c **** }
 2316              		.loc 1 1075 0
 2317 003e 0C37     		adds	r7, r7, #12
 2318              		.cfi_def_cfa_offset 4
 2319 0040 BD46     		mov	sp, r7
 2320              		.cfi_def_cfa_register 13
 2321              		@ sp needed
 2322 0042 5DF8047B 		ldr	r7, [sp], #4
 2323              		.cfi_restore 7
 2324              		.cfi_def_cfa_offset 0
 2325 0046 7047     		bx	lr
 2326              	.L123:
 2327              		.align	2
 2328              	.L122:
 2329 0048 40800240 		.word	1073905728
 2330              		.cfi_endproc
 2331              	.LFE51:
 2333              		.section	.text.ETH_MACAddressMaskBytesFilterConfig,"ax",%progbits
 2334              		.align	2
 2335              		.global	ETH_MACAddressMaskBytesFilterConfig
 2336              		.thumb
 2337              		.thumb_func
 2339              	ETH_MACAddressMaskBytesFilterConfig:
 2340              	.LFB52:
1076:../STM32_ETH_Driver/src/stm32_eth.c **** 
1077:../STM32_ETH_Driver/src/stm32_eth.c **** /**
1078:../STM32_ETH_Driver/src/stm32_eth.c ****   * @brief  Set the filter type for the specified ETHERNET MAC address 
1079:../STM32_ETH_Driver/src/stm32_eth.c ****   * @param  MacAddr: specifies the ETHERNET MAC address 
1080:../STM32_ETH_Driver/src/stm32_eth.c ****   *   This parameter can be one of the following values: 
1081:../STM32_ETH_Driver/src/stm32_eth.c ****   *     @arg ETH_MAC_Address1 : MAC Address1 
1082:../STM32_ETH_Driver/src/stm32_eth.c ****   *     @arg ETH_MAC_Address2 : MAC Address2
1083:../STM32_ETH_Driver/src/stm32_eth.c ****   *     @arg ETH_MAC_Address3 : MAC Address3
1084:../STM32_ETH_Driver/src/stm32_eth.c ****   * @param  MaskByte: specifies the used address bytes for comparaison 
1085:../STM32_ETH_Driver/src/stm32_eth.c ****   *   This parameter can be any combination of the following values: 
1086:../STM32_ETH_Driver/src/stm32_eth.c ****   *     @arg ETH_MAC_AddressMask_Byte6 : Mask MAC Address high reg bits [15:8].
1087:../STM32_ETH_Driver/src/stm32_eth.c ****   *     @arg ETH_MAC_AddressMask_Byte5 : Mask MAC Address high reg bits [7:0].
1088:../STM32_ETH_Driver/src/stm32_eth.c ****   *     @arg ETH_MAC_AddressMask_Byte4 : Mask MAC Address low reg bits [31:24].
1089:../STM32_ETH_Driver/src/stm32_eth.c ****   *     @arg ETH_MAC_AddressMask_Byte3 : Mask MAC Address low reg bits [23:16].
1090:../STM32_ETH_Driver/src/stm32_eth.c ****   *     @arg ETH_MAC_AddressMask_Byte2 : Mask MAC Address low reg bits [15:8].
1091:../STM32_ETH_Driver/src/stm32_eth.c ****   *     @arg ETH_MAC_AddressMask_Byte1 : Mask MAC Address low reg bits [7:0].
1092:../STM32_ETH_Driver/src/stm32_eth.c ****   * @retval None
1093:../STM32_ETH_Driver/src/stm32_eth.c ****   */
1094:../STM32_ETH_Driver/src/stm32_eth.c **** void ETH_MACAddressMaskBytesFilterConfig(uint32_t MacAddr, uint32_t MaskByte)
1095:../STM32_ETH_Driver/src/stm32_eth.c **** {
 2341              		.loc 1 1095 0
 2342              		.cfi_startproc
 2343              		@ args = 0, pretend = 0, frame = 8
 2344              		@ frame_needed = 1, uses_anonymous_args = 0
 2345              		@ link register save eliminated.
 2346 0000 80B4     		push	{r7}
 2347              		.cfi_def_cfa_offset 4
 2348              		.cfi_offset 7, -4
 2349 0002 83B0     		sub	sp, sp, #12
 2350              		.cfi_def_cfa_offset 16
 2351 0004 00AF     		add	r7, sp, #0
 2352              		.cfi_def_cfa_register 7
 2353 0006 7860     		str	r0, [r7, #4]
 2354 0008 3960     		str	r1, [r7]
1096:../STM32_ETH_Driver/src/stm32_eth.c ****   /* Check the parameters */
1097:../STM32_ETH_Driver/src/stm32_eth.c ****   assert_param(IS_ETH_MAC_ADDRESS123(MacAddr));
1098:../STM32_ETH_Driver/src/stm32_eth.c ****   assert_param(IS_ETH_MAC_ADDRESS_MASK(MaskByte));
1099:../STM32_ETH_Driver/src/stm32_eth.c ****   
1100:../STM32_ETH_Driver/src/stm32_eth.c ****   /* Clear MBC bits in the selected MAC address  high register */
1101:../STM32_ETH_Driver/src/stm32_eth.c ****   (*(__IO uint32_t *) (ETH_MAC_ADDR_HBASE + MacAddr)) &=(~(uint32_t)ETH_MACA1HR_MBC);
 2355              		.loc 1 1101 0
 2356 000a 7A68     		ldr	r2, [r7, #4]
 2357 000c 0C4B     		ldr	r3, .L125
 2358 000e 1344     		add	r3, r3, r2
 2359 0010 1946     		mov	r1, r3
 2360 0012 7A68     		ldr	r2, [r7, #4]
 2361 0014 0A4B     		ldr	r3, .L125
 2362 0016 1344     		add	r3, r3, r2
 2363 0018 1B68     		ldr	r3, [r3]
 2364 001a 23F07C53 		bic	r3, r3, #1056964608
 2365 001e 0B60     		str	r3, [r1]
1102:../STM32_ETH_Driver/src/stm32_eth.c ****   /* Set the selected Filetr mask bytes */
1103:../STM32_ETH_Driver/src/stm32_eth.c ****   (*(__IO uint32_t *) (ETH_MAC_ADDR_HBASE + MacAddr)) |= MaskByte;
 2366              		.loc 1 1103 0
 2367 0020 7A68     		ldr	r2, [r7, #4]
 2368 0022 074B     		ldr	r3, .L125
 2369 0024 1344     		add	r3, r3, r2
 2370 0026 1946     		mov	r1, r3
 2371 0028 7A68     		ldr	r2, [r7, #4]
 2372 002a 054B     		ldr	r3, .L125
 2373 002c 1344     		add	r3, r3, r2
 2374 002e 1A68     		ldr	r2, [r3]
 2375 0030 3B68     		ldr	r3, [r7]
 2376 0032 1343     		orrs	r3, r3, r2
 2377 0034 0B60     		str	r3, [r1]
1104:../STM32_ETH_Driver/src/stm32_eth.c **** }
 2378              		.loc 1 1104 0
 2379 0036 0C37     		adds	r7, r7, #12
 2380              		.cfi_def_cfa_offset 4
 2381 0038 BD46     		mov	sp, r7
 2382              		.cfi_def_cfa_register 13
 2383              		@ sp needed
 2384 003a 5DF8047B 		ldr	r7, [sp], #4
 2385              		.cfi_restore 7
 2386              		.cfi_def_cfa_offset 0
 2387 003e 7047     		bx	lr
 2388              	.L126:
 2389              		.align	2
 2390              	.L125:
 2391 0040 40800240 		.word	1073905728
 2392              		.cfi_endproc
 2393              	.LFE52:
 2395              		.section	.text.ETH_DMATxDescChainInit,"ax",%progbits
 2396              		.align	2
 2397              		.global	ETH_DMATxDescChainInit
 2398              		.thumb
 2399              		.thumb_func
 2401              	ETH_DMATxDescChainInit:
 2402              	.LFB53:
1105:../STM32_ETH_Driver/src/stm32_eth.c **** /*------------------------  DMA Tx/Rx Desciptors -----------------------------*/
1106:../STM32_ETH_Driver/src/stm32_eth.c **** 
1107:../STM32_ETH_Driver/src/stm32_eth.c **** 
1108:../STM32_ETH_Driver/src/stm32_eth.c **** /**
1109:../STM32_ETH_Driver/src/stm32_eth.c ****   * @brief  Initializes the DMA Tx descriptors in chain mode.
1110:../STM32_ETH_Driver/src/stm32_eth.c ****   * @param  DMATxDescTab: Pointer on the first Tx desc list 
1111:../STM32_ETH_Driver/src/stm32_eth.c ****   * @param  TxBuff: Pointer on the first TxBuffer list
1112:../STM32_ETH_Driver/src/stm32_eth.c ****   * @param  TxBuffCount: Number of the used Tx desc in the list
1113:../STM32_ETH_Driver/src/stm32_eth.c ****   * @retval None
1114:../STM32_ETH_Driver/src/stm32_eth.c ****   */
1115:../STM32_ETH_Driver/src/stm32_eth.c **** void ETH_DMATxDescChainInit(ETH_DMADESCTypeDef *DMATxDescTab, uint8_t* TxBuff, uint32_t TxBuffCount
1116:../STM32_ETH_Driver/src/stm32_eth.c **** {
 2403              		.loc 1 1116 0
 2404              		.cfi_startproc
 2405              		@ args = 0, pretend = 0, frame = 24
 2406              		@ frame_needed = 1, uses_anonymous_args = 0
 2407              		@ link register save eliminated.
 2408 0000 80B4     		push	{r7}
 2409              		.cfi_def_cfa_offset 4
 2410              		.cfi_offset 7, -4
 2411 0002 87B0     		sub	sp, sp, #28
 2412              		.cfi_def_cfa_offset 32
 2413 0004 00AF     		add	r7, sp, #0
 2414              		.cfi_def_cfa_register 7
 2415 0006 F860     		str	r0, [r7, #12]
 2416 0008 B960     		str	r1, [r7, #8]
 2417 000a 7A60     		str	r2, [r7, #4]
1117:../STM32_ETH_Driver/src/stm32_eth.c ****   uint32_t i = 0;
 2418              		.loc 1 1117 0
 2419 000c 0023     		movs	r3, #0
 2420 000e 7B61     		str	r3, [r7, #20]
1118:../STM32_ETH_Driver/src/stm32_eth.c ****   ETH_DMADESCTypeDef *DMATxDesc;
1119:../STM32_ETH_Driver/src/stm32_eth.c ****   
1120:../STM32_ETH_Driver/src/stm32_eth.c ****   /* Set the DMATxDescToSet pointer with the first one of the DMATxDescTab list */
1121:../STM32_ETH_Driver/src/stm32_eth.c ****   DMATxDescToSet = DMATxDescTab;
 2421              		.loc 1 1121 0
 2422 0010 1D4A     		ldr	r2, .L132
 2423 0012 FB68     		ldr	r3, [r7, #12]
 2424 0014 1360     		str	r3, [r2]
1122:../STM32_ETH_Driver/src/stm32_eth.c ****   /* Fill each DMATxDesc descriptor with the right values */   
1123:../STM32_ETH_Driver/src/stm32_eth.c ****   for(i=0; i < TxBuffCount; i++)
 2425              		.loc 1 1123 0
 2426 0016 0023     		movs	r3, #0
 2427 0018 7B61     		str	r3, [r7, #20]
 2428 001a 26E0     		b	.L128
 2429              	.L131:
1124:../STM32_ETH_Driver/src/stm32_eth.c ****   {
1125:../STM32_ETH_Driver/src/stm32_eth.c ****     /* Get the pointer on the ith member of the Tx Desc list */
1126:../STM32_ETH_Driver/src/stm32_eth.c ****     DMATxDesc = DMATxDescTab + i;
 2430              		.loc 1 1126 0
 2431 001c 7B69     		ldr	r3, [r7, #20]
 2432 001e 1B01     		lsls	r3, r3, #4
 2433 0020 FA68     		ldr	r2, [r7, #12]
 2434 0022 1344     		add	r3, r3, r2
 2435 0024 3B61     		str	r3, [r7, #16]
1127:../STM32_ETH_Driver/src/stm32_eth.c ****     /* Set Second Address Chained bit */
1128:../STM32_ETH_Driver/src/stm32_eth.c ****     DMATxDesc->Status = ETH_DMATxDesc_TCH;  
 2436              		.loc 1 1128 0
 2437 0026 3B69     		ldr	r3, [r7, #16]
 2438 0028 4FF48012 		mov	r2, #1048576
 2439 002c 1A60     		str	r2, [r3]
1129:../STM32_ETH_Driver/src/stm32_eth.c ****        
1130:../STM32_ETH_Driver/src/stm32_eth.c ****     /* Set Buffer1 address pointer */
1131:../STM32_ETH_Driver/src/stm32_eth.c ****     DMATxDesc->Buffer1Addr = (uint32_t)(&TxBuff[i*ETH_MAX_PACKET_SIZE]);
 2440              		.loc 1 1131 0
 2441 002e 7B69     		ldr	r3, [r7, #20]
 2442 0030 40F2F452 		movw	r2, #1524
 2443 0034 02FB03F3 		mul	r3, r2, r3
 2444 0038 BA68     		ldr	r2, [r7, #8]
 2445 003a 1344     		add	r3, r3, r2
 2446 003c 1A46     		mov	r2, r3
 2447 003e 3B69     		ldr	r3, [r7, #16]
 2448 0040 9A60     		str	r2, [r3, #8]
1132:../STM32_ETH_Driver/src/stm32_eth.c ****     
1133:../STM32_ETH_Driver/src/stm32_eth.c ****     /* Initialize the next descriptor with the Next Desciptor Polling Enable */
1134:../STM32_ETH_Driver/src/stm32_eth.c ****     if(i < (TxBuffCount-1))
 2449              		.loc 1 1134 0
 2450 0042 7B68     		ldr	r3, [r7, #4]
 2451 0044 5A1E     		subs	r2, r3, #1
 2452 0046 7B69     		ldr	r3, [r7, #20]
 2453 0048 9A42     		cmp	r2, r3
 2454 004a 08D9     		bls	.L129
1135:../STM32_ETH_Driver/src/stm32_eth.c ****     {
1136:../STM32_ETH_Driver/src/stm32_eth.c ****       /* Set next descriptor address register with next descriptor base address */
1137:../STM32_ETH_Driver/src/stm32_eth.c ****       DMATxDesc->Buffer2NextDescAddr = (uint32_t)(DMATxDescTab+i+1);
 2455              		.loc 1 1137 0
 2456 004c 7B69     		ldr	r3, [r7, #20]
 2457 004e 0133     		adds	r3, r3, #1
 2458 0050 1B01     		lsls	r3, r3, #4
 2459 0052 FA68     		ldr	r2, [r7, #12]
 2460 0054 1344     		add	r3, r3, r2
 2461 0056 1A46     		mov	r2, r3
 2462 0058 3B69     		ldr	r3, [r7, #16]
 2463 005a DA60     		str	r2, [r3, #12]
 2464 005c 02E0     		b	.L130
 2465              	.L129:
1138:../STM32_ETH_Driver/src/stm32_eth.c ****     }
1139:../STM32_ETH_Driver/src/stm32_eth.c ****     else
1140:../STM32_ETH_Driver/src/stm32_eth.c ****     {
1141:../STM32_ETH_Driver/src/stm32_eth.c ****       /* For last descriptor, set next descriptor address register equal to the first descriptor ba
1142:../STM32_ETH_Driver/src/stm32_eth.c ****       DMATxDesc->Buffer2NextDescAddr = (uint32_t) DMATxDescTab;  
 2466              		.loc 1 1142 0
 2467 005e FA68     		ldr	r2, [r7, #12]
 2468 0060 3B69     		ldr	r3, [r7, #16]
 2469 0062 DA60     		str	r2, [r3, #12]
 2470              	.L130:
1123:../STM32_ETH_Driver/src/stm32_eth.c ****   {
 2471              		.loc 1 1123 0 discriminator 2
 2472 0064 7B69     		ldr	r3, [r7, #20]
 2473 0066 0133     		adds	r3, r3, #1
 2474 0068 7B61     		str	r3, [r7, #20]
 2475              	.L128:
1123:../STM32_ETH_Driver/src/stm32_eth.c ****   {
 2476              		.loc 1 1123 0 is_stmt 0 discriminator 1
 2477 006a 7A69     		ldr	r2, [r7, #20]
 2478 006c 7B68     		ldr	r3, [r7, #4]
 2479 006e 9A42     		cmp	r2, r3
 2480 0070 D4D3     		bcc	.L131
1143:../STM32_ETH_Driver/src/stm32_eth.c ****     }
1144:../STM32_ETH_Driver/src/stm32_eth.c ****   }
1145:../STM32_ETH_Driver/src/stm32_eth.c ****    
1146:../STM32_ETH_Driver/src/stm32_eth.c ****   /* Set Transmit Desciptor List Address Register */
1147:../STM32_ETH_Driver/src/stm32_eth.c ****   ETH->DMATDLAR = (uint32_t) DMATxDescTab;
 2481              		.loc 1 1147 0 is_stmt 1
 2482 0072 064B     		ldr	r3, .L132+4
 2483 0074 FA68     		ldr	r2, [r7, #12]
 2484 0076 03F58053 		add	r3, r3, #4096
 2485 007a 1033     		adds	r3, r3, #16
 2486 007c 1A60     		str	r2, [r3]
1148:../STM32_ETH_Driver/src/stm32_eth.c **** }
 2487              		.loc 1 1148 0
 2488 007e 1C37     		adds	r7, r7, #28
 2489              		.cfi_def_cfa_offset 4
 2490 0080 BD46     		mov	sp, r7
 2491              		.cfi_def_cfa_register 13
 2492              		@ sp needed
 2493 0082 5DF8047B 		ldr	r7, [sp], #4
 2494              		.cfi_restore 7
 2495              		.cfi_def_cfa_offset 0
 2496 0086 7047     		bx	lr
 2497              	.L133:
 2498              		.align	2
 2499              	.L132:
 2500 0088 00000000 		.word	DMATxDescToSet
 2501 008c 00800240 		.word	1073905664
 2502              		.cfi_endproc
 2503              	.LFE53:
 2505              		.section	.text.ETH_DMATxDescRingInit,"ax",%progbits
 2506              		.align	2
 2507              		.global	ETH_DMATxDescRingInit
 2508              		.thumb
 2509              		.thumb_func
 2511              	ETH_DMATxDescRingInit:
 2512              	.LFB54:
1149:../STM32_ETH_Driver/src/stm32_eth.c **** 
1150:../STM32_ETH_Driver/src/stm32_eth.c **** /**
1151:../STM32_ETH_Driver/src/stm32_eth.c ****   * @brief  Initializes the DMA Tx descriptors in ring mode.
1152:../STM32_ETH_Driver/src/stm32_eth.c ****   * @param  DMATxDescTab: Pointer on the first Tx desc list 
1153:../STM32_ETH_Driver/src/stm32_eth.c ****   * @param  TxBuff1: Pointer on the first TxBuffer1 list 
1154:../STM32_ETH_Driver/src/stm32_eth.c ****   * @param  TxBuff2: Pointer on the first TxBuffer2 list
1155:../STM32_ETH_Driver/src/stm32_eth.c ****   * @param  TxBuffCount: Number of the used Tx desc in the list
1156:../STM32_ETH_Driver/src/stm32_eth.c ****   *   Note: see decriptor skip length defined in ETH_DMA_InitStruct
1157:../STM32_ETH_Driver/src/stm32_eth.c ****   *   for the number of Words to skip between two unchained descriptors.  
1158:../STM32_ETH_Driver/src/stm32_eth.c ****   * @retval None
1159:../STM32_ETH_Driver/src/stm32_eth.c ****   */
1160:../STM32_ETH_Driver/src/stm32_eth.c **** void ETH_DMATxDescRingInit(ETH_DMADESCTypeDef *DMATxDescTab, uint8_t *TxBuff1, uint8_t *TxBuff2, ui
1161:../STM32_ETH_Driver/src/stm32_eth.c **** {
 2513              		.loc 1 1161 0
 2514              		.cfi_startproc
 2515              		@ args = 0, pretend = 0, frame = 24
 2516              		@ frame_needed = 1, uses_anonymous_args = 0
 2517              		@ link register save eliminated.
 2518 0000 80B4     		push	{r7}
 2519              		.cfi_def_cfa_offset 4
 2520              		.cfi_offset 7, -4
 2521 0002 87B0     		sub	sp, sp, #28
 2522              		.cfi_def_cfa_offset 32
 2523 0004 00AF     		add	r7, sp, #0
 2524              		.cfi_def_cfa_register 7
 2525 0006 F860     		str	r0, [r7, #12]
 2526 0008 B960     		str	r1, [r7, #8]
 2527 000a 7A60     		str	r2, [r7, #4]
 2528 000c 3B60     		str	r3, [r7]
1162:../STM32_ETH_Driver/src/stm32_eth.c ****   uint32_t i = 0;
 2529              		.loc 1 1162 0
 2530 000e 0023     		movs	r3, #0
 2531 0010 7B61     		str	r3, [r7, #20]
1163:../STM32_ETH_Driver/src/stm32_eth.c ****   ETH_DMADESCTypeDef *DMATxDesc;
1164:../STM32_ETH_Driver/src/stm32_eth.c ****  
1165:../STM32_ETH_Driver/src/stm32_eth.c ****   /* Set the DMATxDescToSet pointer with the first one of the DMATxDescTab list */
1166:../STM32_ETH_Driver/src/stm32_eth.c ****   DMATxDescToSet = DMATxDescTab;
 2532              		.loc 1 1166 0
 2533 0012 1D4A     		ldr	r2, .L138
 2534 0014 FB68     		ldr	r3, [r7, #12]
 2535 0016 1360     		str	r3, [r2]
1167:../STM32_ETH_Driver/src/stm32_eth.c ****   /* Fill each DMATxDesc descriptor with the right values */  
1168:../STM32_ETH_Driver/src/stm32_eth.c ****   for(i=0; i < TxBuffCount; i++)
 2536              		.loc 1 1168 0
 2537 0018 0023     		movs	r3, #0
 2538 001a 7B61     		str	r3, [r7, #20]
 2539 001c 24E0     		b	.L135
 2540              	.L137:
1169:../STM32_ETH_Driver/src/stm32_eth.c ****   {
1170:../STM32_ETH_Driver/src/stm32_eth.c ****     /* Get the pointer on the ith member of the Tx Desc list */
1171:../STM32_ETH_Driver/src/stm32_eth.c ****     DMATxDesc = DMATxDescTab + i;
 2541              		.loc 1 1171 0
 2542 001e 7B69     		ldr	r3, [r7, #20]
 2543 0020 1B01     		lsls	r3, r3, #4
 2544 0022 FA68     		ldr	r2, [r7, #12]
 2545 0024 1344     		add	r3, r3, r2
 2546 0026 3B61     		str	r3, [r7, #16]
1172:../STM32_ETH_Driver/src/stm32_eth.c ****     /* Set Buffer1 address pointer */
1173:../STM32_ETH_Driver/src/stm32_eth.c ****     DMATxDesc->Buffer1Addr = (uint32_t)(&TxBuff1[i*ETH_MAX_PACKET_SIZE]);
 2547              		.loc 1 1173 0
 2548 0028 7B69     		ldr	r3, [r7, #20]
 2549 002a 40F2F452 		movw	r2, #1524
 2550 002e 02FB03F3 		mul	r3, r2, r3
 2551 0032 BA68     		ldr	r2, [r7, #8]
 2552 0034 1344     		add	r3, r3, r2
 2553 0036 1A46     		mov	r2, r3
 2554 0038 3B69     		ldr	r3, [r7, #16]
 2555 003a 9A60     		str	r2, [r3, #8]
1174:../STM32_ETH_Driver/src/stm32_eth.c ****     
1175:../STM32_ETH_Driver/src/stm32_eth.c ****     /* Set Buffer2 address pointer */
1176:../STM32_ETH_Driver/src/stm32_eth.c ****     DMATxDesc->Buffer2NextDescAddr = (uint32_t)(&TxBuff2[i*ETH_MAX_PACKET_SIZE]);
 2556              		.loc 1 1176 0
 2557 003c 7B69     		ldr	r3, [r7, #20]
 2558 003e 40F2F452 		movw	r2, #1524
 2559 0042 02FB03F3 		mul	r3, r2, r3
 2560 0046 7A68     		ldr	r2, [r7, #4]
 2561 0048 1344     		add	r3, r3, r2
 2562 004a 1A46     		mov	r2, r3
 2563 004c 3B69     		ldr	r3, [r7, #16]
 2564 004e DA60     		str	r2, [r3, #12]
1177:../STM32_ETH_Driver/src/stm32_eth.c ****     
1178:../STM32_ETH_Driver/src/stm32_eth.c ****     /* Set Transmit End of Ring bit for last descriptor: The DMA returns to the base
1179:../STM32_ETH_Driver/src/stm32_eth.c ****        address of the list, creating a Desciptor Ring */
1180:../STM32_ETH_Driver/src/stm32_eth.c ****     if(i == (TxBuffCount-1))
 2565              		.loc 1 1180 0
 2566 0050 3B68     		ldr	r3, [r7]
 2567 0052 5A1E     		subs	r2, r3, #1
 2568 0054 7B69     		ldr	r3, [r7, #20]
 2569 0056 9A42     		cmp	r2, r3
 2570 0058 03D1     		bne	.L136
1181:../STM32_ETH_Driver/src/stm32_eth.c ****     {
1182:../STM32_ETH_Driver/src/stm32_eth.c ****       /* Set Transmit End of Ring bit */
1183:../STM32_ETH_Driver/src/stm32_eth.c ****       DMATxDesc->Status = ETH_DMATxDesc_TER;
 2571              		.loc 1 1183 0
 2572 005a 3B69     		ldr	r3, [r7, #16]
 2573 005c 4FF40012 		mov	r2, #2097152
 2574 0060 1A60     		str	r2, [r3]
 2575              	.L136:
1168:../STM32_ETH_Driver/src/stm32_eth.c ****   {
 2576              		.loc 1 1168 0 discriminator 2
 2577 0062 7B69     		ldr	r3, [r7, #20]
 2578 0064 0133     		adds	r3, r3, #1
 2579 0066 7B61     		str	r3, [r7, #20]
 2580              	.L135:
1168:../STM32_ETH_Driver/src/stm32_eth.c ****   {
 2581              		.loc 1 1168 0 is_stmt 0 discriminator 1
 2582 0068 7A69     		ldr	r2, [r7, #20]
 2583 006a 3B68     		ldr	r3, [r7]
 2584 006c 9A42     		cmp	r2, r3
 2585 006e D6D3     		bcc	.L137
1184:../STM32_ETH_Driver/src/stm32_eth.c ****     }
1185:../STM32_ETH_Driver/src/stm32_eth.c ****   }
1186:../STM32_ETH_Driver/src/stm32_eth.c ****    
1187:../STM32_ETH_Driver/src/stm32_eth.c ****   /* Set Transmit Desciptor List Address Register */
1188:../STM32_ETH_Driver/src/stm32_eth.c ****   ETH->DMATDLAR =  (uint32_t) DMATxDescTab;
 2586              		.loc 1 1188 0 is_stmt 1
 2587 0070 064B     		ldr	r3, .L138+4
 2588 0072 FA68     		ldr	r2, [r7, #12]
 2589 0074 03F58053 		add	r3, r3, #4096
 2590 0078 1033     		adds	r3, r3, #16
 2591 007a 1A60     		str	r2, [r3]
1189:../STM32_ETH_Driver/src/stm32_eth.c **** }
 2592              		.loc 1 1189 0
 2593 007c 1C37     		adds	r7, r7, #28
 2594              		.cfi_def_cfa_offset 4
 2595 007e BD46     		mov	sp, r7
 2596              		.cfi_def_cfa_register 13
 2597              		@ sp needed
 2598 0080 5DF8047B 		ldr	r7, [sp], #4
 2599              		.cfi_restore 7
 2600              		.cfi_def_cfa_offset 0
 2601 0084 7047     		bx	lr
 2602              	.L139:
 2603 0086 00BF     		.align	2
 2604              	.L138:
 2605 0088 00000000 		.word	DMATxDescToSet
 2606 008c 00800240 		.word	1073905664
 2607              		.cfi_endproc
 2608              	.LFE54:
 2610              		.section	.text.ETH_GetDMATxDescFlagStatus,"ax",%progbits
 2611              		.align	2
 2612              		.global	ETH_GetDMATxDescFlagStatus
 2613              		.thumb
 2614              		.thumb_func
 2616              	ETH_GetDMATxDescFlagStatus:
 2617              	.LFB55:
1190:../STM32_ETH_Driver/src/stm32_eth.c **** 
1191:../STM32_ETH_Driver/src/stm32_eth.c **** /**
1192:../STM32_ETH_Driver/src/stm32_eth.c ****   * @brief  Checks whether the specified ETHERNET DMA Tx Desc flag is set or not.
1193:../STM32_ETH_Driver/src/stm32_eth.c ****   * @param  DMATxDesc: pointer on a DMA Tx descriptor
1194:../STM32_ETH_Driver/src/stm32_eth.c ****   * @param  ETH_DMATxDescFlag: specifies the flag to check.
1195:../STM32_ETH_Driver/src/stm32_eth.c ****   *   This parameter can be one of the following values:
1196:../STM32_ETH_Driver/src/stm32_eth.c ****   *     @arg ETH_DMATxDesc_OWN : OWN bit: descriptor is owned by DMA engine
1197:../STM32_ETH_Driver/src/stm32_eth.c ****   *     @arg ETH_DMATxDesc_IC  : Interrupt on completetion
1198:../STM32_ETH_Driver/src/stm32_eth.c ****   *     @arg ETH_DMATxDesc_LS  : Last Segment
1199:../STM32_ETH_Driver/src/stm32_eth.c ****   *     @arg ETH_DMATxDesc_FS  : First Segment
1200:../STM32_ETH_Driver/src/stm32_eth.c ****   *     @arg ETH_DMATxDesc_DC  : Disable CRC
1201:../STM32_ETH_Driver/src/stm32_eth.c ****   *     @arg ETH_DMATxDesc_DP  : Disable Pad
1202:../STM32_ETH_Driver/src/stm32_eth.c ****   *     @arg ETH_DMATxDesc_TTSE: Transmit Time Stamp Enable
1203:../STM32_ETH_Driver/src/stm32_eth.c ****   *     @arg ETH_DMATxDesc_TER : Transmit End of Ring
1204:../STM32_ETH_Driver/src/stm32_eth.c ****   *     @arg ETH_DMATxDesc_TCH : Second Address Chained
1205:../STM32_ETH_Driver/src/stm32_eth.c ****   *     @arg ETH_DMATxDesc_TTSS: Tx Time Stamp Status
1206:../STM32_ETH_Driver/src/stm32_eth.c ****   *     @arg ETH_DMATxDesc_IHE : IP Header Error
1207:../STM32_ETH_Driver/src/stm32_eth.c ****   *     @arg ETH_DMATxDesc_ES  : Error summary
1208:../STM32_ETH_Driver/src/stm32_eth.c ****   *     @arg ETH_DMATxDesc_JT  : Jabber Timeout
1209:../STM32_ETH_Driver/src/stm32_eth.c ****   *     @arg ETH_DMATxDesc_FF  : Frame Flushed: DMA/MTL flushed the frame due to SW flush
1210:../STM32_ETH_Driver/src/stm32_eth.c ****   *     @arg ETH_DMATxDesc_PCE : Payload Checksum Error
1211:../STM32_ETH_Driver/src/stm32_eth.c ****   *     @arg ETH_DMATxDesc_LCA : Loss of Carrier: carrier lost during tramsmission
1212:../STM32_ETH_Driver/src/stm32_eth.c ****   *     @arg ETH_DMATxDesc_NC  : No Carrier: no carrier signal from the tranceiver
1213:../STM32_ETH_Driver/src/stm32_eth.c ****   *     @arg ETH_DMATxDesc_LCO : Late Collision: transmission aborted due to collision
1214:../STM32_ETH_Driver/src/stm32_eth.c ****   *     @arg ETH_DMATxDesc_EC  : Excessive Collision: transmission aborted after 16 collisions
1215:../STM32_ETH_Driver/src/stm32_eth.c ****   *     @arg ETH_DMATxDesc_VF  : VLAN Frame
1216:../STM32_ETH_Driver/src/stm32_eth.c ****   *     @arg ETH_DMATxDesc_CC  : Collision Count 
1217:../STM32_ETH_Driver/src/stm32_eth.c ****   *     @arg ETH_DMATxDesc_ED  : Excessive Deferral
1218:../STM32_ETH_Driver/src/stm32_eth.c ****   *     @arg ETH_DMATxDesc_UF  : Underflow Error: late data arrival from the memory
1219:../STM32_ETH_Driver/src/stm32_eth.c ****   *     @arg ETH_DMATxDesc_DB  : Deferred Bit
1220:../STM32_ETH_Driver/src/stm32_eth.c ****   * @retval The new state of ETH_DMATxDescFlag (SET or RESET).
1221:../STM32_ETH_Driver/src/stm32_eth.c ****   */
1222:../STM32_ETH_Driver/src/stm32_eth.c **** FlagStatus ETH_GetDMATxDescFlagStatus(ETH_DMADESCTypeDef *DMATxDesc, uint32_t ETH_DMATxDescFlag)
1223:../STM32_ETH_Driver/src/stm32_eth.c **** {
 2618              		.loc 1 1223 0
 2619              		.cfi_startproc
 2620              		@ args = 0, pretend = 0, frame = 16
 2621              		@ frame_needed = 1, uses_anonymous_args = 0
 2622              		@ link register save eliminated.
 2623 0000 80B4     		push	{r7}
 2624              		.cfi_def_cfa_offset 4
 2625              		.cfi_offset 7, -4
 2626 0002 85B0     		sub	sp, sp, #20
 2627              		.cfi_def_cfa_offset 24
 2628 0004 00AF     		add	r7, sp, #0
 2629              		.cfi_def_cfa_register 7
 2630 0006 7860     		str	r0, [r7, #4]
 2631 0008 3960     		str	r1, [r7]
1224:../STM32_ETH_Driver/src/stm32_eth.c ****   FlagStatus bitstatus = RESET;
 2632              		.loc 1 1224 0
 2633 000a 0023     		movs	r3, #0
 2634 000c FB73     		strb	r3, [r7, #15]
1225:../STM32_ETH_Driver/src/stm32_eth.c ****   /* Check the parameters */
1226:../STM32_ETH_Driver/src/stm32_eth.c ****   assert_param(IS_ETH_DMATxDESC_GET_FLAG(ETH_DMATxDescFlag));
1227:../STM32_ETH_Driver/src/stm32_eth.c ****   
1228:../STM32_ETH_Driver/src/stm32_eth.c ****   if ((DMATxDesc->Status & ETH_DMATxDescFlag) != (uint32_t)RESET)
 2635              		.loc 1 1228 0
 2636 000e 7B68     		ldr	r3, [r7, #4]
 2637 0010 1A68     		ldr	r2, [r3]
 2638 0012 3B68     		ldr	r3, [r7]
 2639 0014 1340     		ands	r3, r3, r2
 2640 0016 002B     		cmp	r3, #0
 2641 0018 02D0     		beq	.L141
1229:../STM32_ETH_Driver/src/stm32_eth.c ****   {
1230:../STM32_ETH_Driver/src/stm32_eth.c ****     bitstatus = SET;
 2642              		.loc 1 1230 0
 2643 001a 0123     		movs	r3, #1
 2644 001c FB73     		strb	r3, [r7, #15]
 2645 001e 01E0     		b	.L142
 2646              	.L141:
1231:../STM32_ETH_Driver/src/stm32_eth.c ****   }
1232:../STM32_ETH_Driver/src/stm32_eth.c ****   else
1233:../STM32_ETH_Driver/src/stm32_eth.c ****   {
1234:../STM32_ETH_Driver/src/stm32_eth.c ****     bitstatus = RESET;
 2647              		.loc 1 1234 0
 2648 0020 0023     		movs	r3, #0
 2649 0022 FB73     		strb	r3, [r7, #15]
 2650              	.L142:
1235:../STM32_ETH_Driver/src/stm32_eth.c ****   }
1236:../STM32_ETH_Driver/src/stm32_eth.c ****   return bitstatus;
 2651              		.loc 1 1236 0
 2652 0024 FB7B     		ldrb	r3, [r7, #15]	@ zero_extendqisi2
1237:../STM32_ETH_Driver/src/stm32_eth.c **** }
 2653              		.loc 1 1237 0
 2654 0026 1846     		mov	r0, r3
 2655 0028 1437     		adds	r7, r7, #20
 2656              		.cfi_def_cfa_offset 4
 2657 002a BD46     		mov	sp, r7
 2658              		.cfi_def_cfa_register 13
 2659              		@ sp needed
 2660 002c 5DF8047B 		ldr	r7, [sp], #4
 2661              		.cfi_restore 7
 2662              		.cfi_def_cfa_offset 0
 2663 0030 7047     		bx	lr
 2664              		.cfi_endproc
 2665              	.LFE55:
 2667 0032 00BF     		.section	.text.ETH_GetDMATxDescCollisionCount,"ax",%progbits
 2668              		.align	2
 2669              		.global	ETH_GetDMATxDescCollisionCount
 2670              		.thumb
 2671              		.thumb_func
 2673              	ETH_GetDMATxDescCollisionCount:
 2674              	.LFB56:
1238:../STM32_ETH_Driver/src/stm32_eth.c **** 
1239:../STM32_ETH_Driver/src/stm32_eth.c **** /**
1240:../STM32_ETH_Driver/src/stm32_eth.c ****   * @brief  Returns the specified ETHERNET DMA Tx Desc collision count.
1241:../STM32_ETH_Driver/src/stm32_eth.c ****   * @param  DMATxDesc: pointer on a DMA Tx descriptor                     
1242:../STM32_ETH_Driver/src/stm32_eth.c ****   * @retval The Transmit descriptor collision counter value.
1243:../STM32_ETH_Driver/src/stm32_eth.c ****   */
1244:../STM32_ETH_Driver/src/stm32_eth.c **** uint32_t ETH_GetDMATxDescCollisionCount(ETH_DMADESCTypeDef *DMATxDesc)
1245:../STM32_ETH_Driver/src/stm32_eth.c **** {
 2675              		.loc 1 1245 0
 2676              		.cfi_startproc
 2677              		@ args = 0, pretend = 0, frame = 8
 2678              		@ frame_needed = 1, uses_anonymous_args = 0
 2679              		@ link register save eliminated.
 2680 0000 80B4     		push	{r7}
 2681              		.cfi_def_cfa_offset 4
 2682              		.cfi_offset 7, -4
 2683 0002 83B0     		sub	sp, sp, #12
 2684              		.cfi_def_cfa_offset 16
 2685 0004 00AF     		add	r7, sp, #0
 2686              		.cfi_def_cfa_register 7
 2687 0006 7860     		str	r0, [r7, #4]
1246:../STM32_ETH_Driver/src/stm32_eth.c ****   /* Return the Receive descriptor frame length */
1247:../STM32_ETH_Driver/src/stm32_eth.c ****   return ((DMATxDesc->Status & ETH_DMATxDesc_CC) >> ETH_DMATXDESC_COLLISION_COUNTSHIFT);
 2688              		.loc 1 1247 0
 2689 0008 7B68     		ldr	r3, [r7, #4]
 2690 000a 1B68     		ldr	r3, [r3]
 2691 000c 03F07803 		and	r3, r3, #120
 2692 0010 DB08     		lsrs	r3, r3, #3
1248:../STM32_ETH_Driver/src/stm32_eth.c **** }
 2693              		.loc 1 1248 0
 2694 0012 1846     		mov	r0, r3
 2695 0014 0C37     		adds	r7, r7, #12
 2696              		.cfi_def_cfa_offset 4
 2697 0016 BD46     		mov	sp, r7
 2698              		.cfi_def_cfa_register 13
 2699              		@ sp needed
 2700 0018 5DF8047B 		ldr	r7, [sp], #4
 2701              		.cfi_restore 7
 2702              		.cfi_def_cfa_offset 0
 2703 001c 7047     		bx	lr
 2704              		.cfi_endproc
 2705              	.LFE56:
 2707 001e 00BF     		.section	.text.ETH_SetDMATxDescOwnBit,"ax",%progbits
 2708              		.align	2
 2709              		.global	ETH_SetDMATxDescOwnBit
 2710              		.thumb
 2711              		.thumb_func
 2713              	ETH_SetDMATxDescOwnBit:
 2714              	.LFB57:
1249:../STM32_ETH_Driver/src/stm32_eth.c **** 
1250:../STM32_ETH_Driver/src/stm32_eth.c **** /**
1251:../STM32_ETH_Driver/src/stm32_eth.c ****   * @brief  Set the specified DMA Tx Desc Own bit.
1252:../STM32_ETH_Driver/src/stm32_eth.c ****   * @param  DMATxDesc: Pointer on a Tx desc
1253:../STM32_ETH_Driver/src/stm32_eth.c ****   * @retval None
1254:../STM32_ETH_Driver/src/stm32_eth.c ****   */
1255:../STM32_ETH_Driver/src/stm32_eth.c **** void ETH_SetDMATxDescOwnBit(ETH_DMADESCTypeDef *DMATxDesc)
1256:../STM32_ETH_Driver/src/stm32_eth.c **** {
 2715              		.loc 1 1256 0
 2716              		.cfi_startproc
 2717              		@ args = 0, pretend = 0, frame = 8
 2718              		@ frame_needed = 1, uses_anonymous_args = 0
 2719              		@ link register save eliminated.
 2720 0000 80B4     		push	{r7}
 2721              		.cfi_def_cfa_offset 4
 2722              		.cfi_offset 7, -4
 2723 0002 83B0     		sub	sp, sp, #12
 2724              		.cfi_def_cfa_offset 16
 2725 0004 00AF     		add	r7, sp, #0
 2726              		.cfi_def_cfa_register 7
 2727 0006 7860     		str	r0, [r7, #4]
1257:../STM32_ETH_Driver/src/stm32_eth.c ****   /* Set the DMA Tx Desc Own bit */
1258:../STM32_ETH_Driver/src/stm32_eth.c ****   DMATxDesc->Status |= ETH_DMATxDesc_OWN;
 2728              		.loc 1 1258 0
 2729 0008 7B68     		ldr	r3, [r7, #4]
 2730 000a 1B68     		ldr	r3, [r3]
 2731 000c 43F00042 		orr	r2, r3, #-2147483648
 2732 0010 7B68     		ldr	r3, [r7, #4]
 2733 0012 1A60     		str	r2, [r3]
1259:../STM32_ETH_Driver/src/stm32_eth.c **** }
 2734              		.loc 1 1259 0
 2735 0014 0C37     		adds	r7, r7, #12
 2736              		.cfi_def_cfa_offset 4
 2737 0016 BD46     		mov	sp, r7
 2738              		.cfi_def_cfa_register 13
 2739              		@ sp needed
 2740 0018 5DF8047B 		ldr	r7, [sp], #4
 2741              		.cfi_restore 7
 2742              		.cfi_def_cfa_offset 0
 2743 001c 7047     		bx	lr
 2744              		.cfi_endproc
 2745              	.LFE57:
 2747 001e 00BF     		.section	.text.ETH_DMATxDescTransmitITConfig,"ax",%progbits
 2748              		.align	2
 2749              		.global	ETH_DMATxDescTransmitITConfig
 2750              		.thumb
 2751              		.thumb_func
 2753              	ETH_DMATxDescTransmitITConfig:
 2754              	.LFB58:
1260:../STM32_ETH_Driver/src/stm32_eth.c **** 
1261:../STM32_ETH_Driver/src/stm32_eth.c **** /**
1262:../STM32_ETH_Driver/src/stm32_eth.c ****   * @brief  Enables or disables the specified DMA Tx Desc Transmit interrupt.
1263:../STM32_ETH_Driver/src/stm32_eth.c ****   * @param  DMATxDesc: Pointer on a Tx desc
1264:../STM32_ETH_Driver/src/stm32_eth.c ****   * @param  NewState: new state of the DMA Tx Desc transmit interrupt.
1265:../STM32_ETH_Driver/src/stm32_eth.c ****   *   This parameter can be: ENABLE or DISABLE.                   
1266:../STM32_ETH_Driver/src/stm32_eth.c ****   * @retval None
1267:../STM32_ETH_Driver/src/stm32_eth.c ****   */
1268:../STM32_ETH_Driver/src/stm32_eth.c **** void ETH_DMATxDescTransmitITConfig(ETH_DMADESCTypeDef *DMATxDesc, FunctionalState NewState)
1269:../STM32_ETH_Driver/src/stm32_eth.c **** {
 2755              		.loc 1 1269 0
 2756              		.cfi_startproc
 2757              		@ args = 0, pretend = 0, frame = 8
 2758              		@ frame_needed = 1, uses_anonymous_args = 0
 2759              		@ link register save eliminated.
 2760 0000 80B4     		push	{r7}
 2761              		.cfi_def_cfa_offset 4
 2762              		.cfi_offset 7, -4
 2763 0002 83B0     		sub	sp, sp, #12
 2764              		.cfi_def_cfa_offset 16
 2765 0004 00AF     		add	r7, sp, #0
 2766              		.cfi_def_cfa_register 7
 2767 0006 7860     		str	r0, [r7, #4]
 2768 0008 0B46     		mov	r3, r1
 2769 000a FB70     		strb	r3, [r7, #3]
1270:../STM32_ETH_Driver/src/stm32_eth.c ****   /* Check the parameters */
1271:../STM32_ETH_Driver/src/stm32_eth.c ****   assert_param(IS_FUNCTIONAL_STATE(NewState));
1272:../STM32_ETH_Driver/src/stm32_eth.c ****   
1273:../STM32_ETH_Driver/src/stm32_eth.c ****   if (NewState != DISABLE)
 2770              		.loc 1 1273 0
 2771 000c FB78     		ldrb	r3, [r7, #3]	@ zero_extendqisi2
 2772 000e 002B     		cmp	r3, #0
 2773 0010 06D0     		beq	.L148
1274:../STM32_ETH_Driver/src/stm32_eth.c ****   {
1275:../STM32_ETH_Driver/src/stm32_eth.c ****     /* Enable the DMA Tx Desc Transmit interrupt */
1276:../STM32_ETH_Driver/src/stm32_eth.c ****     DMATxDesc->Status |= ETH_DMATxDesc_IC;
 2774              		.loc 1 1276 0
 2775 0012 7B68     		ldr	r3, [r7, #4]
 2776 0014 1B68     		ldr	r3, [r3]
 2777 0016 43F08042 		orr	r2, r3, #1073741824
 2778 001a 7B68     		ldr	r3, [r7, #4]
 2779 001c 1A60     		str	r2, [r3]
 2780 001e 05E0     		b	.L147
 2781              	.L148:
1277:../STM32_ETH_Driver/src/stm32_eth.c ****   }
1278:../STM32_ETH_Driver/src/stm32_eth.c ****   else
1279:../STM32_ETH_Driver/src/stm32_eth.c ****   {
1280:../STM32_ETH_Driver/src/stm32_eth.c ****     /* Disable the DMA Tx Desc Transmit interrupt */
1281:../STM32_ETH_Driver/src/stm32_eth.c ****     DMATxDesc->Status &=(~(uint32_t)ETH_DMATxDesc_IC);
 2782              		.loc 1 1281 0
 2783 0020 7B68     		ldr	r3, [r7, #4]
 2784 0022 1B68     		ldr	r3, [r3]
 2785 0024 23F08042 		bic	r2, r3, #1073741824
 2786 0028 7B68     		ldr	r3, [r7, #4]
 2787 002a 1A60     		str	r2, [r3]
 2788              	.L147:
1282:../STM32_ETH_Driver/src/stm32_eth.c ****   }
1283:../STM32_ETH_Driver/src/stm32_eth.c **** }
 2789              		.loc 1 1283 0
 2790 002c 0C37     		adds	r7, r7, #12
 2791              		.cfi_def_cfa_offset 4
 2792 002e BD46     		mov	sp, r7
 2793              		.cfi_def_cfa_register 13
 2794              		@ sp needed
 2795 0030 5DF8047B 		ldr	r7, [sp], #4
 2796              		.cfi_restore 7
 2797              		.cfi_def_cfa_offset 0
 2798 0034 7047     		bx	lr
 2799              		.cfi_endproc
 2800              	.LFE58:
 2802 0036 00BF     		.section	.text.ETH_DMATxDescFrameSegmentConfig,"ax",%progbits
 2803              		.align	2
 2804              		.global	ETH_DMATxDescFrameSegmentConfig
 2805              		.thumb
 2806              		.thumb_func
 2808              	ETH_DMATxDescFrameSegmentConfig:
 2809              	.LFB59:
1284:../STM32_ETH_Driver/src/stm32_eth.c **** 
1285:../STM32_ETH_Driver/src/stm32_eth.c **** /**
1286:../STM32_ETH_Driver/src/stm32_eth.c ****   * @brief  Enables or disables the specified DMA Tx Desc Transmit interrupt.
1287:../STM32_ETH_Driver/src/stm32_eth.c ****   * @param  DMATxDesc: Pointer on a Tx desc
1288:../STM32_ETH_Driver/src/stm32_eth.c ****   * @param  DMATxDesc_FrameSegment: specifies is the actual Tx desc contain last or first segment.
1289:../STM32_ETH_Driver/src/stm32_eth.c ****   *   This parameter can be one of the following values:
1290:../STM32_ETH_Driver/src/stm32_eth.c ****   *     @arg ETH_DMATxDesc_LastSegment  : actual Tx desc contain last segment 
1291:../STM32_ETH_Driver/src/stm32_eth.c ****   *     @arg ETH_DMATxDesc_FirstSegment : actual Tx desc contain first segment                   
1292:../STM32_ETH_Driver/src/stm32_eth.c ****   * @retval None
1293:../STM32_ETH_Driver/src/stm32_eth.c ****   */
1294:../STM32_ETH_Driver/src/stm32_eth.c **** void ETH_DMATxDescFrameSegmentConfig(ETH_DMADESCTypeDef *DMATxDesc, uint32_t DMATxDesc_FrameSegment
1295:../STM32_ETH_Driver/src/stm32_eth.c **** {
 2810              		.loc 1 1295 0
 2811              		.cfi_startproc
 2812              		@ args = 0, pretend = 0, frame = 8
 2813              		@ frame_needed = 1, uses_anonymous_args = 0
 2814              		@ link register save eliminated.
 2815 0000 80B4     		push	{r7}
 2816              		.cfi_def_cfa_offset 4
 2817              		.cfi_offset 7, -4
 2818 0002 83B0     		sub	sp, sp, #12
 2819              		.cfi_def_cfa_offset 16
 2820 0004 00AF     		add	r7, sp, #0
 2821              		.cfi_def_cfa_register 7
 2822 0006 7860     		str	r0, [r7, #4]
 2823 0008 3960     		str	r1, [r7]
1296:../STM32_ETH_Driver/src/stm32_eth.c ****   /* Check the parameters */
1297:../STM32_ETH_Driver/src/stm32_eth.c ****   assert_param(IS_ETH_DMA_TXDESC_SEGMENT(DMATxDesc_FrameSegment));
1298:../STM32_ETH_Driver/src/stm32_eth.c ****   
1299:../STM32_ETH_Driver/src/stm32_eth.c ****   /* Selects the DMA Tx Desc Frame segment */
1300:../STM32_ETH_Driver/src/stm32_eth.c ****   DMATxDesc->Status |= DMATxDesc_FrameSegment;
 2824              		.loc 1 1300 0
 2825 000a 7B68     		ldr	r3, [r7, #4]
 2826 000c 1A68     		ldr	r2, [r3]
 2827 000e 3B68     		ldr	r3, [r7]
 2828 0010 1A43     		orrs	r2, r2, r3
 2829 0012 7B68     		ldr	r3, [r7, #4]
 2830 0014 1A60     		str	r2, [r3]
1301:../STM32_ETH_Driver/src/stm32_eth.c **** }
 2831              		.loc 1 1301 0
 2832 0016 0C37     		adds	r7, r7, #12
 2833              		.cfi_def_cfa_offset 4
 2834 0018 BD46     		mov	sp, r7
 2835              		.cfi_def_cfa_register 13
 2836              		@ sp needed
 2837 001a 5DF8047B 		ldr	r7, [sp], #4
 2838              		.cfi_restore 7
 2839              		.cfi_def_cfa_offset 0
 2840 001e 7047     		bx	lr
 2841              		.cfi_endproc
 2842              	.LFE59:
 2844              		.section	.text.ETH_DMATxDescChecksumInsertionConfig,"ax",%progbits
 2845              		.align	2
 2846              		.global	ETH_DMATxDescChecksumInsertionConfig
 2847              		.thumb
 2848              		.thumb_func
 2850              	ETH_DMATxDescChecksumInsertionConfig:
 2851              	.LFB60:
1302:../STM32_ETH_Driver/src/stm32_eth.c **** 
1303:../STM32_ETH_Driver/src/stm32_eth.c **** /**
1304:../STM32_ETH_Driver/src/stm32_eth.c ****   * @brief  Selects the specified ETHERNET DMA Tx Desc Checksum Insertion.
1305:../STM32_ETH_Driver/src/stm32_eth.c ****   * @param  DMATxDesc: pointer on a DMA Tx descriptor 
1306:../STM32_ETH_Driver/src/stm32_eth.c ****   * @param  DMATxDesc_Checksum: specifies is the DMA Tx desc checksum insertion.
1307:../STM32_ETH_Driver/src/stm32_eth.c ****   *   This parameter can be one of the following values:
1308:../STM32_ETH_Driver/src/stm32_eth.c ****   *     @arg ETH_DMATxDesc_ChecksumByPass : Checksum bypass
1309:../STM32_ETH_Driver/src/stm32_eth.c ****   *     @arg ETH_DMATxDesc_ChecksumIPV4Header : IPv4 header checksum
1310:../STM32_ETH_Driver/src/stm32_eth.c ****   *     @arg ETH_DMATxDesc_ChecksumTCPUDPICMPSegment : TCP/UDP/ICMP checksum. Pseudo header checksu
1311:../STM32_ETH_Driver/src/stm32_eth.c ****   *     @arg ETH_DMATxDesc_ChecksumTCPUDPICMPFull : TCP/UDP/ICMP checksum fully in hardware includi
1312:../STM32_ETH_Driver/src/stm32_eth.c ****   * @retval None
1313:../STM32_ETH_Driver/src/stm32_eth.c ****   */
1314:../STM32_ETH_Driver/src/stm32_eth.c **** void ETH_DMATxDescChecksumInsertionConfig(ETH_DMADESCTypeDef *DMATxDesc, uint32_t DMATxDesc_Checksu
1315:../STM32_ETH_Driver/src/stm32_eth.c **** {
 2852              		.loc 1 1315 0
 2853              		.cfi_startproc
 2854              		@ args = 0, pretend = 0, frame = 8
 2855              		@ frame_needed = 1, uses_anonymous_args = 0
 2856              		@ link register save eliminated.
 2857 0000 80B4     		push	{r7}
 2858              		.cfi_def_cfa_offset 4
 2859              		.cfi_offset 7, -4
 2860 0002 83B0     		sub	sp, sp, #12
 2861              		.cfi_def_cfa_offset 16
 2862 0004 00AF     		add	r7, sp, #0
 2863              		.cfi_def_cfa_register 7
 2864 0006 7860     		str	r0, [r7, #4]
 2865 0008 3960     		str	r1, [r7]
1316:../STM32_ETH_Driver/src/stm32_eth.c ****   /* Check the parameters */
1317:../STM32_ETH_Driver/src/stm32_eth.c ****   assert_param(IS_ETH_DMA_TXDESC_CHECKSUM(DMATxDesc_Checksum));
1318:../STM32_ETH_Driver/src/stm32_eth.c ****   
1319:../STM32_ETH_Driver/src/stm32_eth.c ****   /* Set the selected DMA Tx desc checksum insertion control */
1320:../STM32_ETH_Driver/src/stm32_eth.c ****   DMATxDesc->Status |= DMATxDesc_Checksum;
 2866              		.loc 1 1320 0
 2867 000a 7B68     		ldr	r3, [r7, #4]
 2868 000c 1A68     		ldr	r2, [r3]
 2869 000e 3B68     		ldr	r3, [r7]
 2870 0010 1A43     		orrs	r2, r2, r3
 2871 0012 7B68     		ldr	r3, [r7, #4]
 2872 0014 1A60     		str	r2, [r3]
1321:../STM32_ETH_Driver/src/stm32_eth.c **** }
 2873              		.loc 1 1321 0
 2874 0016 0C37     		adds	r7, r7, #12
 2875              		.cfi_def_cfa_offset 4
 2876 0018 BD46     		mov	sp, r7
 2877              		.cfi_def_cfa_register 13
 2878              		@ sp needed
 2879 001a 5DF8047B 		ldr	r7, [sp], #4
 2880              		.cfi_restore 7
 2881              		.cfi_def_cfa_offset 0
 2882 001e 7047     		bx	lr
 2883              		.cfi_endproc
 2884              	.LFE60:
 2886              		.section	.text.ETH_DMATxDescCRCCmd,"ax",%progbits
 2887              		.align	2
 2888              		.global	ETH_DMATxDescCRCCmd
 2889              		.thumb
 2890              		.thumb_func
 2892              	ETH_DMATxDescCRCCmd:
 2893              	.LFB61:
1322:../STM32_ETH_Driver/src/stm32_eth.c **** 
1323:../STM32_ETH_Driver/src/stm32_eth.c **** /**
1324:../STM32_ETH_Driver/src/stm32_eth.c ****   * @brief  Enables or disables the DMA Tx Desc CRC.
1325:../STM32_ETH_Driver/src/stm32_eth.c ****   * @param  DMATxDesc: pointer on a DMA Tx descriptor
1326:../STM32_ETH_Driver/src/stm32_eth.c ****   * @param  NewState: new state of the specified DMA Tx Desc CRC.
1327:../STM32_ETH_Driver/src/stm32_eth.c ****   *   This parameter can be: ENABLE or DISABLE.
1328:../STM32_ETH_Driver/src/stm32_eth.c ****   * @retval None
1329:../STM32_ETH_Driver/src/stm32_eth.c ****   */
1330:../STM32_ETH_Driver/src/stm32_eth.c **** void ETH_DMATxDescCRCCmd(ETH_DMADESCTypeDef *DMATxDesc, FunctionalState NewState)
1331:../STM32_ETH_Driver/src/stm32_eth.c **** {
 2894              		.loc 1 1331 0
 2895              		.cfi_startproc
 2896              		@ args = 0, pretend = 0, frame = 8
 2897              		@ frame_needed = 1, uses_anonymous_args = 0
 2898              		@ link register save eliminated.
 2899 0000 80B4     		push	{r7}
 2900              		.cfi_def_cfa_offset 4
 2901              		.cfi_offset 7, -4
 2902 0002 83B0     		sub	sp, sp, #12
 2903              		.cfi_def_cfa_offset 16
 2904 0004 00AF     		add	r7, sp, #0
 2905              		.cfi_def_cfa_register 7
 2906 0006 7860     		str	r0, [r7, #4]
 2907 0008 0B46     		mov	r3, r1
 2908 000a FB70     		strb	r3, [r7, #3]
1332:../STM32_ETH_Driver/src/stm32_eth.c ****   /* Check the parameters */
1333:../STM32_ETH_Driver/src/stm32_eth.c ****   assert_param(IS_FUNCTIONAL_STATE(NewState));
1334:../STM32_ETH_Driver/src/stm32_eth.c ****   
1335:../STM32_ETH_Driver/src/stm32_eth.c ****   if (NewState != DISABLE)
 2909              		.loc 1 1335 0
 2910 000c FB78     		ldrb	r3, [r7, #3]	@ zero_extendqisi2
 2911 000e 002B     		cmp	r3, #0
 2912 0010 06D0     		beq	.L153
1336:../STM32_ETH_Driver/src/stm32_eth.c ****   {
1337:../STM32_ETH_Driver/src/stm32_eth.c ****     /* Enable the selected DMA Tx Desc CRC */
1338:../STM32_ETH_Driver/src/stm32_eth.c ****     DMATxDesc->Status &= (~(uint32_t)ETH_DMATxDesc_DC);
 2913              		.loc 1 1338 0
 2914 0012 7B68     		ldr	r3, [r7, #4]
 2915 0014 1B68     		ldr	r3, [r3]
 2916 0016 23F00062 		bic	r2, r3, #134217728
 2917 001a 7B68     		ldr	r3, [r7, #4]
 2918 001c 1A60     		str	r2, [r3]
 2919 001e 05E0     		b	.L152
 2920              	.L153:
1339:../STM32_ETH_Driver/src/stm32_eth.c ****   }
1340:../STM32_ETH_Driver/src/stm32_eth.c ****   else
1341:../STM32_ETH_Driver/src/stm32_eth.c ****   {
1342:../STM32_ETH_Driver/src/stm32_eth.c ****     /* Disable the selected DMA Tx Desc CRC */
1343:../STM32_ETH_Driver/src/stm32_eth.c ****     DMATxDesc->Status |= ETH_DMATxDesc_DC; 
 2921              		.loc 1 1343 0
 2922 0020 7B68     		ldr	r3, [r7, #4]
 2923 0022 1B68     		ldr	r3, [r3]
 2924 0024 43F00062 		orr	r2, r3, #134217728
 2925 0028 7B68     		ldr	r3, [r7, #4]
 2926 002a 1A60     		str	r2, [r3]
 2927              	.L152:
1344:../STM32_ETH_Driver/src/stm32_eth.c ****   }
1345:../STM32_ETH_Driver/src/stm32_eth.c **** }
 2928              		.loc 1 1345 0
 2929 002c 0C37     		adds	r7, r7, #12
 2930              		.cfi_def_cfa_offset 4
 2931 002e BD46     		mov	sp, r7
 2932              		.cfi_def_cfa_register 13
 2933              		@ sp needed
 2934 0030 5DF8047B 		ldr	r7, [sp], #4
 2935              		.cfi_restore 7
 2936              		.cfi_def_cfa_offset 0
 2937 0034 7047     		bx	lr
 2938              		.cfi_endproc
 2939              	.LFE61:
 2941 0036 00BF     		.section	.text.ETH_DMATxDescEndOfRingCmd,"ax",%progbits
 2942              		.align	2
 2943              		.global	ETH_DMATxDescEndOfRingCmd
 2944              		.thumb
 2945              		.thumb_func
 2947              	ETH_DMATxDescEndOfRingCmd:
 2948              	.LFB62:
1346:../STM32_ETH_Driver/src/stm32_eth.c **** 
1347:../STM32_ETH_Driver/src/stm32_eth.c **** /**
1348:../STM32_ETH_Driver/src/stm32_eth.c ****   * @brief  Enables or disables the DMA Tx Desc end of ring.
1349:../STM32_ETH_Driver/src/stm32_eth.c ****   * @param  DMATxDesc: pointer on a DMA Tx descriptor
1350:../STM32_ETH_Driver/src/stm32_eth.c ****   * @param  NewState: new state of the specified DMA Tx Desc end of ring.
1351:../STM32_ETH_Driver/src/stm32_eth.c ****   *   This parameter can be: ENABLE or DISABLE.
1352:../STM32_ETH_Driver/src/stm32_eth.c ****   * @retval None
1353:../STM32_ETH_Driver/src/stm32_eth.c ****   */
1354:../STM32_ETH_Driver/src/stm32_eth.c **** void ETH_DMATxDescEndOfRingCmd(ETH_DMADESCTypeDef *DMATxDesc, FunctionalState NewState)
1355:../STM32_ETH_Driver/src/stm32_eth.c **** {
 2949              		.loc 1 1355 0
 2950              		.cfi_startproc
 2951              		@ args = 0, pretend = 0, frame = 8
 2952              		@ frame_needed = 1, uses_anonymous_args = 0
 2953              		@ link register save eliminated.
 2954 0000 80B4     		push	{r7}
 2955              		.cfi_def_cfa_offset 4
 2956              		.cfi_offset 7, -4
 2957 0002 83B0     		sub	sp, sp, #12
 2958              		.cfi_def_cfa_offset 16
 2959 0004 00AF     		add	r7, sp, #0
 2960              		.cfi_def_cfa_register 7
 2961 0006 7860     		str	r0, [r7, #4]
 2962 0008 0B46     		mov	r3, r1
 2963 000a FB70     		strb	r3, [r7, #3]
1356:../STM32_ETH_Driver/src/stm32_eth.c ****   /* Check the parameters */
1357:../STM32_ETH_Driver/src/stm32_eth.c ****   assert_param(IS_FUNCTIONAL_STATE(NewState));
1358:../STM32_ETH_Driver/src/stm32_eth.c ****   
1359:../STM32_ETH_Driver/src/stm32_eth.c ****   if (NewState != DISABLE)
 2964              		.loc 1 1359 0
 2965 000c FB78     		ldrb	r3, [r7, #3]	@ zero_extendqisi2
 2966 000e 002B     		cmp	r3, #0
 2967 0010 06D0     		beq	.L156
1360:../STM32_ETH_Driver/src/stm32_eth.c ****   {
1361:../STM32_ETH_Driver/src/stm32_eth.c ****     /* Enable the selected DMA Tx Desc end of ring */
1362:../STM32_ETH_Driver/src/stm32_eth.c ****     DMATxDesc->Status |= ETH_DMATxDesc_TER;  
 2968              		.loc 1 1362 0
 2969 0012 7B68     		ldr	r3, [r7, #4]
 2970 0014 1B68     		ldr	r3, [r3]
 2971 0016 43F40012 		orr	r2, r3, #2097152
 2972 001a 7B68     		ldr	r3, [r7, #4]
 2973 001c 1A60     		str	r2, [r3]
 2974 001e 05E0     		b	.L155
 2975              	.L156:
1363:../STM32_ETH_Driver/src/stm32_eth.c ****   }
1364:../STM32_ETH_Driver/src/stm32_eth.c ****   else
1365:../STM32_ETH_Driver/src/stm32_eth.c ****   {
1366:../STM32_ETH_Driver/src/stm32_eth.c ****     /* Disable the selected DMA Tx Desc end of ring */
1367:../STM32_ETH_Driver/src/stm32_eth.c ****     DMATxDesc->Status &= (~(uint32_t)ETH_DMATxDesc_TER); 
 2976              		.loc 1 1367 0
 2977 0020 7B68     		ldr	r3, [r7, #4]
 2978 0022 1B68     		ldr	r3, [r3]
 2979 0024 23F40012 		bic	r2, r3, #2097152
 2980 0028 7B68     		ldr	r3, [r7, #4]
 2981 002a 1A60     		str	r2, [r3]
 2982              	.L155:
1368:../STM32_ETH_Driver/src/stm32_eth.c ****   }
1369:../STM32_ETH_Driver/src/stm32_eth.c **** }
 2983              		.loc 1 1369 0
 2984 002c 0C37     		adds	r7, r7, #12
 2985              		.cfi_def_cfa_offset 4
 2986 002e BD46     		mov	sp, r7
 2987              		.cfi_def_cfa_register 13
 2988              		@ sp needed
 2989 0030 5DF8047B 		ldr	r7, [sp], #4
 2990              		.cfi_restore 7
 2991              		.cfi_def_cfa_offset 0
 2992 0034 7047     		bx	lr
 2993              		.cfi_endproc
 2994              	.LFE62:
 2996 0036 00BF     		.section	.text.ETH_DMATxDescSecondAddressChainedCmd,"ax",%progbits
 2997              		.align	2
 2998              		.global	ETH_DMATxDescSecondAddressChainedCmd
 2999              		.thumb
 3000              		.thumb_func
 3002              	ETH_DMATxDescSecondAddressChainedCmd:
 3003              	.LFB63:
1370:../STM32_ETH_Driver/src/stm32_eth.c **** 
1371:../STM32_ETH_Driver/src/stm32_eth.c **** /**
1372:../STM32_ETH_Driver/src/stm32_eth.c ****   * @brief  Enables or disables the DMA Tx Desc second address chained.
1373:../STM32_ETH_Driver/src/stm32_eth.c ****   * @param  DMATxDesc: pointer on a DMA Tx descriptor
1374:../STM32_ETH_Driver/src/stm32_eth.c ****   * @param  NewState: new state of the specified DMA Tx Desc second address chained.
1375:../STM32_ETH_Driver/src/stm32_eth.c ****   *   This parameter can be: ENABLE or DISABLE.
1376:../STM32_ETH_Driver/src/stm32_eth.c ****   * @retval None
1377:../STM32_ETH_Driver/src/stm32_eth.c ****   */
1378:../STM32_ETH_Driver/src/stm32_eth.c **** void ETH_DMATxDescSecondAddressChainedCmd(ETH_DMADESCTypeDef *DMATxDesc, FunctionalState NewState)
1379:../STM32_ETH_Driver/src/stm32_eth.c **** {
 3004              		.loc 1 1379 0
 3005              		.cfi_startproc
 3006              		@ args = 0, pretend = 0, frame = 8
 3007              		@ frame_needed = 1, uses_anonymous_args = 0
 3008              		@ link register save eliminated.
 3009 0000 80B4     		push	{r7}
 3010              		.cfi_def_cfa_offset 4
 3011              		.cfi_offset 7, -4
 3012 0002 83B0     		sub	sp, sp, #12
 3013              		.cfi_def_cfa_offset 16
 3014 0004 00AF     		add	r7, sp, #0
 3015              		.cfi_def_cfa_register 7
 3016 0006 7860     		str	r0, [r7, #4]
 3017 0008 0B46     		mov	r3, r1
 3018 000a FB70     		strb	r3, [r7, #3]
1380:../STM32_ETH_Driver/src/stm32_eth.c ****   /* Check the parameters */
1381:../STM32_ETH_Driver/src/stm32_eth.c ****   assert_param(IS_FUNCTIONAL_STATE(NewState));
1382:../STM32_ETH_Driver/src/stm32_eth.c ****   
1383:../STM32_ETH_Driver/src/stm32_eth.c ****   if (NewState != DISABLE)
 3019              		.loc 1 1383 0
 3020 000c FB78     		ldrb	r3, [r7, #3]	@ zero_extendqisi2
 3021 000e 002B     		cmp	r3, #0
 3022 0010 06D0     		beq	.L159
1384:../STM32_ETH_Driver/src/stm32_eth.c ****   {
1385:../STM32_ETH_Driver/src/stm32_eth.c ****     /* Enable the selected DMA Tx Desc second address chained */
1386:../STM32_ETH_Driver/src/stm32_eth.c ****     DMATxDesc->Status |= ETH_DMATxDesc_TCH;  
 3023              		.loc 1 1386 0
 3024 0012 7B68     		ldr	r3, [r7, #4]
 3025 0014 1B68     		ldr	r3, [r3]
 3026 0016 43F48012 		orr	r2, r3, #1048576
 3027 001a 7B68     		ldr	r3, [r7, #4]
 3028 001c 1A60     		str	r2, [r3]
 3029 001e 05E0     		b	.L158
 3030              	.L159:
1387:../STM32_ETH_Driver/src/stm32_eth.c ****   }
1388:../STM32_ETH_Driver/src/stm32_eth.c ****   else
1389:../STM32_ETH_Driver/src/stm32_eth.c ****   {
1390:../STM32_ETH_Driver/src/stm32_eth.c ****     /* Disable the selected DMA Tx Desc second address chained */
1391:../STM32_ETH_Driver/src/stm32_eth.c ****     DMATxDesc->Status &=(~(uint32_t)ETH_DMATxDesc_TCH); 
 3031              		.loc 1 1391 0
 3032 0020 7B68     		ldr	r3, [r7, #4]
 3033 0022 1B68     		ldr	r3, [r3]
 3034 0024 23F48012 		bic	r2, r3, #1048576
 3035 0028 7B68     		ldr	r3, [r7, #4]
 3036 002a 1A60     		str	r2, [r3]
 3037              	.L158:
1392:../STM32_ETH_Driver/src/stm32_eth.c ****   }
1393:../STM32_ETH_Driver/src/stm32_eth.c **** }
 3038              		.loc 1 1393 0
 3039 002c 0C37     		adds	r7, r7, #12
 3040              		.cfi_def_cfa_offset 4
 3041 002e BD46     		mov	sp, r7
 3042              		.cfi_def_cfa_register 13
 3043              		@ sp needed
 3044 0030 5DF8047B 		ldr	r7, [sp], #4
 3045              		.cfi_restore 7
 3046              		.cfi_def_cfa_offset 0
 3047 0034 7047     		bx	lr
 3048              		.cfi_endproc
 3049              	.LFE63:
 3051 0036 00BF     		.section	.text.ETH_DMATxDescShortFramePaddingCmd,"ax",%progbits
 3052              		.align	2
 3053              		.global	ETH_DMATxDescShortFramePaddingCmd
 3054              		.thumb
 3055              		.thumb_func
 3057              	ETH_DMATxDescShortFramePaddingCmd:
 3058              	.LFB64:
1394:../STM32_ETH_Driver/src/stm32_eth.c **** 
1395:../STM32_ETH_Driver/src/stm32_eth.c **** /**
1396:../STM32_ETH_Driver/src/stm32_eth.c ****   * @brief  Enables or disables the DMA Tx Desc padding for frame shorter than 64 bytes.
1397:../STM32_ETH_Driver/src/stm32_eth.c ****   * @param  DMATxDesc: pointer on a DMA Tx descriptor
1398:../STM32_ETH_Driver/src/stm32_eth.c ****   * @param  NewState: new state of the specified DMA Tx Desc padding for frame shorter than 64 byte
1399:../STM32_ETH_Driver/src/stm32_eth.c ****   *   This parameter can be: ENABLE or DISABLE.
1400:../STM32_ETH_Driver/src/stm32_eth.c ****   * @retval None
1401:../STM32_ETH_Driver/src/stm32_eth.c ****   */
1402:../STM32_ETH_Driver/src/stm32_eth.c **** void ETH_DMATxDescShortFramePaddingCmd(ETH_DMADESCTypeDef *DMATxDesc, FunctionalState NewState)
1403:../STM32_ETH_Driver/src/stm32_eth.c **** {
 3059              		.loc 1 1403 0
 3060              		.cfi_startproc
 3061              		@ args = 0, pretend = 0, frame = 8
 3062              		@ frame_needed = 1, uses_anonymous_args = 0
 3063              		@ link register save eliminated.
 3064 0000 80B4     		push	{r7}
 3065              		.cfi_def_cfa_offset 4
 3066              		.cfi_offset 7, -4
 3067 0002 83B0     		sub	sp, sp, #12
 3068              		.cfi_def_cfa_offset 16
 3069 0004 00AF     		add	r7, sp, #0
 3070              		.cfi_def_cfa_register 7
 3071 0006 7860     		str	r0, [r7, #4]
 3072 0008 0B46     		mov	r3, r1
 3073 000a FB70     		strb	r3, [r7, #3]
1404:../STM32_ETH_Driver/src/stm32_eth.c ****   /* Check the parameters */
1405:../STM32_ETH_Driver/src/stm32_eth.c ****   assert_param(IS_FUNCTIONAL_STATE(NewState));
1406:../STM32_ETH_Driver/src/stm32_eth.c ****   
1407:../STM32_ETH_Driver/src/stm32_eth.c ****   if (NewState != DISABLE)
 3074              		.loc 1 1407 0
 3075 000c FB78     		ldrb	r3, [r7, #3]	@ zero_extendqisi2
 3076 000e 002B     		cmp	r3, #0
 3077 0010 06D0     		beq	.L162
1408:../STM32_ETH_Driver/src/stm32_eth.c ****   {
1409:../STM32_ETH_Driver/src/stm32_eth.c ****     /* Enable the selected DMA Tx Desc padding for frame shorter than 64 bytes */
1410:../STM32_ETH_Driver/src/stm32_eth.c ****     DMATxDesc->Status &= (~(uint32_t)ETH_DMATxDesc_DP);
 3078              		.loc 1 1410 0
 3079 0012 7B68     		ldr	r3, [r7, #4]
 3080 0014 1B68     		ldr	r3, [r3]
 3081 0016 23F08062 		bic	r2, r3, #67108864
 3082 001a 7B68     		ldr	r3, [r7, #4]
 3083 001c 1A60     		str	r2, [r3]
 3084 001e 05E0     		b	.L161
 3085              	.L162:
1411:../STM32_ETH_Driver/src/stm32_eth.c ****   }
1412:../STM32_ETH_Driver/src/stm32_eth.c ****   else
1413:../STM32_ETH_Driver/src/stm32_eth.c ****   {
1414:../STM32_ETH_Driver/src/stm32_eth.c ****     /* Disable the selected DMA Tx Desc padding for frame shorter than 64 bytes*/
1415:../STM32_ETH_Driver/src/stm32_eth.c ****     DMATxDesc->Status |= ETH_DMATxDesc_DP; 
 3086              		.loc 1 1415 0
 3087 0020 7B68     		ldr	r3, [r7, #4]
 3088 0022 1B68     		ldr	r3, [r3]
 3089 0024 43F08062 		orr	r2, r3, #67108864
 3090 0028 7B68     		ldr	r3, [r7, #4]
 3091 002a 1A60     		str	r2, [r3]
 3092              	.L161:
1416:../STM32_ETH_Driver/src/stm32_eth.c ****   }
1417:../STM32_ETH_Driver/src/stm32_eth.c **** }
 3093              		.loc 1 1417 0
 3094 002c 0C37     		adds	r7, r7, #12
 3095              		.cfi_def_cfa_offset 4
 3096 002e BD46     		mov	sp, r7
 3097              		.cfi_def_cfa_register 13
 3098              		@ sp needed
 3099 0030 5DF8047B 		ldr	r7, [sp], #4
 3100              		.cfi_restore 7
 3101              		.cfi_def_cfa_offset 0
 3102 0034 7047     		bx	lr
 3103              		.cfi_endproc
 3104              	.LFE64:
 3106 0036 00BF     		.section	.text.ETH_DMATxDescTimeStampCmd,"ax",%progbits
 3107              		.align	2
 3108              		.global	ETH_DMATxDescTimeStampCmd
 3109              		.thumb
 3110              		.thumb_func
 3112              	ETH_DMATxDescTimeStampCmd:
 3113              	.LFB65:
1418:../STM32_ETH_Driver/src/stm32_eth.c **** 
1419:../STM32_ETH_Driver/src/stm32_eth.c **** /**
1420:../STM32_ETH_Driver/src/stm32_eth.c ****   * @brief  Enables or disables the DMA Tx Desc time stamp.
1421:../STM32_ETH_Driver/src/stm32_eth.c ****   * @param  DMATxDesc: pointer on a DMA Tx descriptor
1422:../STM32_ETH_Driver/src/stm32_eth.c ****   * @param  NewState: new state of the specified DMA Tx Desc time stamp.
1423:../STM32_ETH_Driver/src/stm32_eth.c ****   *   This parameter can be: ENABLE or DISABLE.
1424:../STM32_ETH_Driver/src/stm32_eth.c ****   * @retval None
1425:../STM32_ETH_Driver/src/stm32_eth.c ****   */
1426:../STM32_ETH_Driver/src/stm32_eth.c **** void ETH_DMATxDescTimeStampCmd(ETH_DMADESCTypeDef *DMATxDesc, FunctionalState NewState)
1427:../STM32_ETH_Driver/src/stm32_eth.c **** {
 3114              		.loc 1 1427 0
 3115              		.cfi_startproc
 3116              		@ args = 0, pretend = 0, frame = 8
 3117              		@ frame_needed = 1, uses_anonymous_args = 0
 3118              		@ link register save eliminated.
 3119 0000 80B4     		push	{r7}
 3120              		.cfi_def_cfa_offset 4
 3121              		.cfi_offset 7, -4
 3122 0002 83B0     		sub	sp, sp, #12
 3123              		.cfi_def_cfa_offset 16
 3124 0004 00AF     		add	r7, sp, #0
 3125              		.cfi_def_cfa_register 7
 3126 0006 7860     		str	r0, [r7, #4]
 3127 0008 0B46     		mov	r3, r1
 3128 000a FB70     		strb	r3, [r7, #3]
1428:../STM32_ETH_Driver/src/stm32_eth.c ****   /* Check the parameters */
1429:../STM32_ETH_Driver/src/stm32_eth.c ****   assert_param(IS_FUNCTIONAL_STATE(NewState));
1430:../STM32_ETH_Driver/src/stm32_eth.c ****   
1431:../STM32_ETH_Driver/src/stm32_eth.c ****   if (NewState != DISABLE)
 3129              		.loc 1 1431 0
 3130 000c FB78     		ldrb	r3, [r7, #3]	@ zero_extendqisi2
 3131 000e 002B     		cmp	r3, #0
 3132 0010 06D0     		beq	.L165
1432:../STM32_ETH_Driver/src/stm32_eth.c ****   {
1433:../STM32_ETH_Driver/src/stm32_eth.c ****     /* Enable the selected DMA Tx Desc time stamp */
1434:../STM32_ETH_Driver/src/stm32_eth.c ****     DMATxDesc->Status |= ETH_DMATxDesc_TTSE;  
 3133              		.loc 1 1434 0
 3134 0012 7B68     		ldr	r3, [r7, #4]
 3135 0014 1B68     		ldr	r3, [r3]
 3136 0016 43F00072 		orr	r2, r3, #33554432
 3137 001a 7B68     		ldr	r3, [r7, #4]
 3138 001c 1A60     		str	r2, [r3]
 3139 001e 05E0     		b	.L164
 3140              	.L165:
1435:../STM32_ETH_Driver/src/stm32_eth.c ****   }
1436:../STM32_ETH_Driver/src/stm32_eth.c ****   else
1437:../STM32_ETH_Driver/src/stm32_eth.c ****   {
1438:../STM32_ETH_Driver/src/stm32_eth.c ****     /* Disable the selected DMA Tx Desc time stamp */
1439:../STM32_ETH_Driver/src/stm32_eth.c ****     DMATxDesc->Status &=(~(uint32_t)ETH_DMATxDesc_TTSE); 
 3141              		.loc 1 1439 0
 3142 0020 7B68     		ldr	r3, [r7, #4]
 3143 0022 1B68     		ldr	r3, [r3]
 3144 0024 23F00072 		bic	r2, r3, #33554432
 3145 0028 7B68     		ldr	r3, [r7, #4]
 3146 002a 1A60     		str	r2, [r3]
 3147              	.L164:
1440:../STM32_ETH_Driver/src/stm32_eth.c ****   }
1441:../STM32_ETH_Driver/src/stm32_eth.c **** }
 3148              		.loc 1 1441 0
 3149 002c 0C37     		adds	r7, r7, #12
 3150              		.cfi_def_cfa_offset 4
 3151 002e BD46     		mov	sp, r7
 3152              		.cfi_def_cfa_register 13
 3153              		@ sp needed
 3154 0030 5DF8047B 		ldr	r7, [sp], #4
 3155              		.cfi_restore 7
 3156              		.cfi_def_cfa_offset 0
 3157 0034 7047     		bx	lr
 3158              		.cfi_endproc
 3159              	.LFE65:
 3161 0036 00BF     		.section	.text.ETH_DMATxDescBufferSizeConfig,"ax",%progbits
 3162              		.align	2
 3163              		.global	ETH_DMATxDescBufferSizeConfig
 3164              		.thumb
 3165              		.thumb_func
 3167              	ETH_DMATxDescBufferSizeConfig:
 3168              	.LFB66:
1442:../STM32_ETH_Driver/src/stm32_eth.c **** 
1443:../STM32_ETH_Driver/src/stm32_eth.c **** /**
1444:../STM32_ETH_Driver/src/stm32_eth.c ****   * @brief  Configures the specified DMA Tx Desc buffer1 and buffer2 sizes.
1445:../STM32_ETH_Driver/src/stm32_eth.c ****   * @param  DMATxDesc: Pointer on a Tx desc
1446:../STM32_ETH_Driver/src/stm32_eth.c ****   * @param  BufferSize1: specifies the Tx desc buffer1 size.
1447:../STM32_ETH_Driver/src/stm32_eth.c ****   * @param  BufferSize2: specifies the Tx desc buffer2 size (put "0" if not used).
1448:../STM32_ETH_Driver/src/stm32_eth.c ****   * @retval None
1449:../STM32_ETH_Driver/src/stm32_eth.c ****   */
1450:../STM32_ETH_Driver/src/stm32_eth.c **** void ETH_DMATxDescBufferSizeConfig(ETH_DMADESCTypeDef *DMATxDesc, uint32_t BufferSize1, uint32_t Bu
1451:../STM32_ETH_Driver/src/stm32_eth.c **** {
 3169              		.loc 1 1451 0
 3170              		.cfi_startproc
 3171              		@ args = 0, pretend = 0, frame = 16
 3172              		@ frame_needed = 1, uses_anonymous_args = 0
 3173              		@ link register save eliminated.
 3174 0000 80B4     		push	{r7}
 3175              		.cfi_def_cfa_offset 4
 3176              		.cfi_offset 7, -4
 3177 0002 85B0     		sub	sp, sp, #20
 3178              		.cfi_def_cfa_offset 24
 3179 0004 00AF     		add	r7, sp, #0
 3180              		.cfi_def_cfa_register 7
 3181 0006 F860     		str	r0, [r7, #12]
 3182 0008 B960     		str	r1, [r7, #8]
 3183 000a 7A60     		str	r2, [r7, #4]
1452:../STM32_ETH_Driver/src/stm32_eth.c ****   /* Check the parameters */
1453:../STM32_ETH_Driver/src/stm32_eth.c ****   assert_param(IS_ETH_DMATxDESC_BUFFER_SIZE(BufferSize1));
1454:../STM32_ETH_Driver/src/stm32_eth.c ****   assert_param(IS_ETH_DMATxDESC_BUFFER_SIZE(BufferSize2));
1455:../STM32_ETH_Driver/src/stm32_eth.c ****   
1456:../STM32_ETH_Driver/src/stm32_eth.c ****   /* Set the DMA Tx Desc buffer1 and buffer2 sizes values */
1457:../STM32_ETH_Driver/src/stm32_eth.c ****   DMATxDesc->ControlBufferSize |= (BufferSize1 | (BufferSize2 << ETH_DMATXDESC_BUFFER2_SIZESHIFT));
 3184              		.loc 1 1457 0
 3185 000c FB68     		ldr	r3, [r7, #12]
 3186 000e 5A68     		ldr	r2, [r3, #4]
 3187 0010 7B68     		ldr	r3, [r7, #4]
 3188 0012 1904     		lsls	r1, r3, #16
 3189 0014 BB68     		ldr	r3, [r7, #8]
 3190 0016 0B43     		orrs	r3, r3, r1
 3191 0018 1A43     		orrs	r2, r2, r3
 3192 001a FB68     		ldr	r3, [r7, #12]
 3193 001c 5A60     		str	r2, [r3, #4]
1458:../STM32_ETH_Driver/src/stm32_eth.c **** }
 3194              		.loc 1 1458 0
 3195 001e 1437     		adds	r7, r7, #20
 3196              		.cfi_def_cfa_offset 4
 3197 0020 BD46     		mov	sp, r7
 3198              		.cfi_def_cfa_register 13
 3199              		@ sp needed
 3200 0022 5DF8047B 		ldr	r7, [sp], #4
 3201              		.cfi_restore 7
 3202              		.cfi_def_cfa_offset 0
 3203 0026 7047     		bx	lr
 3204              		.cfi_endproc
 3205              	.LFE66:
 3207              		.section	.text.ETH_DMARxDescChainInit,"ax",%progbits
 3208              		.align	2
 3209              		.global	ETH_DMARxDescChainInit
 3210              		.thumb
 3211              		.thumb_func
 3213              	ETH_DMARxDescChainInit:
 3214              	.LFB67:
1459:../STM32_ETH_Driver/src/stm32_eth.c **** 
1460:../STM32_ETH_Driver/src/stm32_eth.c **** /**
1461:../STM32_ETH_Driver/src/stm32_eth.c ****   * @brief  Initializes the DMA Rx descriptors in chain mode.
1462:../STM32_ETH_Driver/src/stm32_eth.c ****   * @param  DMARxDescTab: Pointer on the first Rx desc list 
1463:../STM32_ETH_Driver/src/stm32_eth.c ****   * @param  RxBuff: Pointer on the first RxBuffer list
1464:../STM32_ETH_Driver/src/stm32_eth.c ****   * @param  RxBuffCount: Number of the used Rx desc in the list
1465:../STM32_ETH_Driver/src/stm32_eth.c ****   * @retval None
1466:../STM32_ETH_Driver/src/stm32_eth.c ****   */
1467:../STM32_ETH_Driver/src/stm32_eth.c **** void ETH_DMARxDescChainInit(ETH_DMADESCTypeDef *DMARxDescTab, uint8_t *RxBuff, uint32_t RxBuffCount
1468:../STM32_ETH_Driver/src/stm32_eth.c **** {
 3215              		.loc 1 1468 0
 3216              		.cfi_startproc
 3217              		@ args = 0, pretend = 0, frame = 24
 3218              		@ frame_needed = 1, uses_anonymous_args = 0
 3219              		@ link register save eliminated.
 3220 0000 80B4     		push	{r7}
 3221              		.cfi_def_cfa_offset 4
 3222              		.cfi_offset 7, -4
 3223 0002 87B0     		sub	sp, sp, #28
 3224              		.cfi_def_cfa_offset 32
 3225 0004 00AF     		add	r7, sp, #0
 3226              		.cfi_def_cfa_register 7
 3227 0006 F860     		str	r0, [r7, #12]
 3228 0008 B960     		str	r1, [r7, #8]
 3229 000a 7A60     		str	r2, [r7, #4]
1469:../STM32_ETH_Driver/src/stm32_eth.c ****   uint32_t i = 0;
 3230              		.loc 1 1469 0
 3231 000c 0023     		movs	r3, #0
 3232 000e 7B61     		str	r3, [r7, #20]
1470:../STM32_ETH_Driver/src/stm32_eth.c ****   ETH_DMADESCTypeDef *DMARxDesc;
1471:../STM32_ETH_Driver/src/stm32_eth.c ****   
