   1              		.syntax unified
   2              		.cpu cortex-m3
   3              		.fpu softvfp
   4              		.eabi_attribute 20, 1
   5              		.eabi_attribute 21, 1
   6              		.eabi_attribute 23, 3
   7              		.eabi_attribute 24, 1
   8              		.eabi_attribute 25, 1
   9              		.eabi_attribute 26, 1
  10              		.eabi_attribute 30, 6
  11              		.eabi_attribute 34, 1
  12              		.eabi_attribute 18, 4
  13              		.thumb
  14              		.file	"stm32f107.c"
  15              		.text
  16              	.Ltext0:
  17              		.cfi_sections	.debug_frame
  18              		.data
  19              		.align	2
  22              	UID:
  23 0000 E8F7FF1F 		.word	536868840
  24              		.section	.text.delay_us,"ax",%progbits
  25              		.align	2
  26              		.global	delay_us
  27              		.thumb
  28              		.thumb_func
  30              	delay_us:
  31              	.LFB29:
  32              		.file 1 "../src/stm32f107.c"
   1:../src/stm32f107.c **** #include "stm32f107.h"
   2:../src/stm32f107.c **** 
   3:../src/stm32f107.c **** static unsigned long *UID = (uint32_t *)0x1FFFF7E8;
   4:../src/stm32f107.c **** 
   5:../src/stm32f107.c **** void delay_us (unsigned int delay)
   6:../src/stm32f107.c **** {
  33              		.loc 1 6 0
  34              		.cfi_startproc
  35              		@ args = 0, pretend = 0, frame = 8
  36              		@ frame_needed = 1, uses_anonymous_args = 0
  37              		@ link register save eliminated.
  38 0000 80B4     		push	{r7}
  39              		.cfi_def_cfa_offset 4
  40              		.cfi_offset 7, -4
  41 0002 83B0     		sub	sp, sp, #12
  42              		.cfi_def_cfa_offset 16
  43 0004 00AF     		add	r7, sp, #0
  44              		.cfi_def_cfa_register 7
  45 0006 7860     		str	r0, [r7, #4]
   7:../src/stm32f107.c ****     TIM2->PSC = F_APB1/1000000-1;
  46              		.loc 1 7 0
  47 0008 4FF08043 		mov	r3, #1073741824
  48 000c 2322     		movs	r2, #35
  49 000e 1A85     		strh	r2, [r3, #40]	@ movhi
   8:../src/stm32f107.c ****     TIM2->ARR = delay*2;
  50              		.loc 1 8 0
  51 0010 4FF08042 		mov	r2, #1073741824
  52 0014 7B68     		ldr	r3, [r7, #4]
  53 0016 9BB2     		uxth	r3, r3
  54 0018 5B00     		lsls	r3, r3, #1
  55 001a 9BB2     		uxth	r3, r3
  56 001c 9385     		strh	r3, [r2, #44]	@ movhi
   9:../src/stm32f107.c ****     TIM2->EGR = TIM_EGR_UG;
  57              		.loc 1 9 0
  58 001e 4FF08043 		mov	r3, #1073741824
  59 0022 0122     		movs	r2, #1
  60 0024 9A82     		strh	r2, [r3, #20]	@ movhi
  10:../src/stm32f107.c ****     TIM2->CR1 = TIM_CR1_CEN|TIM_CR1_OPM;
  61              		.loc 1 10 0
  62 0026 4FF08043 		mov	r3, #1073741824
  63 002a 0922     		movs	r2, #9
  64 002c 1A80     		strh	r2, [r3]	@ movhi
  11:../src/stm32f107.c ****     while ((TIM2->CR1 & TIM_CR1_CEN)!=0);
  65              		.loc 1 11 0
  66 002e 00BF     		nop
  67              	.L2:
  68              		.loc 1 11 0 is_stmt 0 discriminator 1
  69 0030 4FF08043 		mov	r3, #1073741824
  70 0034 1B88     		ldrh	r3, [r3]	@ movhi
  71 0036 9BB2     		uxth	r3, r3
  72 0038 03F00103 		and	r3, r3, #1
  73 003c 002B     		cmp	r3, #0
  74 003e F7D1     		bne	.L2
  12:../src/stm32f107.c **** }
  75              		.loc 1 12 0 is_stmt 1
  76 0040 0C37     		adds	r7, r7, #12
  77              		.cfi_def_cfa_offset 4
  78 0042 BD46     		mov	sp, r7
  79              		.cfi_def_cfa_register 13
  80              		@ sp needed
  81 0044 5DF8047B 		ldr	r7, [sp], #4
  82              		.cfi_restore 7
  83              		.cfi_def_cfa_offset 0
  84 0048 7047     		bx	lr
  85              		.cfi_endproc
  86              	.LFE29:
  88 004a 00BF     		.section	.text.delay_ms,"ax",%progbits
  89              		.align	2
  90              		.global	delay_ms
  91              		.thumb
  92              		.thumb_func
  94              	delay_ms:
  95              	.LFB30:
  13:../src/stm32f107.c **** 
  14:../src/stm32f107.c **** void delay_ms (unsigned int delay)
  15:../src/stm32f107.c **** {
  96              		.loc 1 15 0
  97              		.cfi_startproc
  98              		@ args = 0, pretend = 0, frame = 8
  99              		@ frame_needed = 1, uses_anonymous_args = 0
 100              		@ link register save eliminated.
 101 0000 80B4     		push	{r7}
 102              		.cfi_def_cfa_offset 4
 103              		.cfi_offset 7, -4
 104 0002 83B0     		sub	sp, sp, #12
 105              		.cfi_def_cfa_offset 16
 106 0004 00AF     		add	r7, sp, #0
 107              		.cfi_def_cfa_register 7
 108 0006 7860     		str	r0, [r7, #4]
  16:../src/stm32f107.c ****     TIM2->PSC = F_APB1/1000-1;
 109              		.loc 1 16 0
 110 0008 4FF08043 		mov	r3, #1073741824
 111 000c 48F69F42 		movw	r2, #35999
 112 0010 1A85     		strh	r2, [r3, #40]	@ movhi
  17:../src/stm32f107.c ****     TIM2->ARR = delay*2;
 113              		.loc 1 17 0
 114 0012 4FF08042 		mov	r2, #1073741824
 115 0016 7B68     		ldr	r3, [r7, #4]
 116 0018 9BB2     		uxth	r3, r3
 117 001a 5B00     		lsls	r3, r3, #1
 118 001c 9BB2     		uxth	r3, r3
 119 001e 9385     		strh	r3, [r2, #44]	@ movhi
  18:../src/stm32f107.c ****     TIM2->EGR = TIM_EGR_UG;
 120              		.loc 1 18 0
 121 0020 4FF08043 		mov	r3, #1073741824
 122 0024 0122     		movs	r2, #1
 123 0026 9A82     		strh	r2, [r3, #20]	@ movhi
  19:../src/stm32f107.c ****     TIM2->CR1 = TIM_CR1_CEN|TIM_CR1_OPM;
 124              		.loc 1 19 0
 125 0028 4FF08043 		mov	r3, #1073741824
 126 002c 0922     		movs	r2, #9
 127 002e 1A80     		strh	r2, [r3]	@ movhi
  20:../src/stm32f107.c ****     while ((TIM2->CR1 & TIM_CR1_CEN)!=0);
 128              		.loc 1 20 0
 129 0030 00BF     		nop
 130              	.L4:
 131              		.loc 1 20 0 is_stmt 0 discriminator 1
 132 0032 4FF08043 		mov	r3, #1073741824
 133 0036 1B88     		ldrh	r3, [r3]	@ movhi
 134 0038 9BB2     		uxth	r3, r3
 135 003a 03F00103 		and	r3, r3, #1
 136 003e 002B     		cmp	r3, #0
 137 0040 F7D1     		bne	.L4
  21:../src/stm32f107.c **** }
 138              		.loc 1 21 0 is_stmt 1
 139 0042 0C37     		adds	r7, r7, #12
 140              		.cfi_def_cfa_offset 4
 141 0044 BD46     		mov	sp, r7
 142              		.cfi_def_cfa_register 13
 143              		@ sp needed
 144 0046 5DF8047B 		ldr	r7, [sp], #4
 145              		.cfi_restore 7
 146              		.cfi_def_cfa_offset 0
 147 004a 7047     		bx	lr
 148              		.cfi_endproc
 149              	.LFE30:
 151              		.text
 152              	.Letext0:
 153              		.file 2 "f:\\eclipse\\gcc\\arm-none-eabi\\include\\machine\\_default_types.h"
 154              		.file 3 "f:\\eclipse\\gcc\\arm-none-eabi\\include\\sys\\_stdint.h"
 155              		.file 4 "F:\\ARM\\STM32 Eclipse Firmware\\STM32F107_Template\\cmsis/stm32f10x.h"
 156              		.file 5 "F:\\ARM\\STM32 Eclipse Firmware\\STM32F107_Template\\cmsis/core_cm3.h"